
NTC.elf:     file format elf32-littleriscv
NTC.elf
architecture: riscv:rv32, flags 0x00000112:
EXEC_P, HAS_SYMS, D_PAGED
start address 0x00000000

Program Header:
0x70000003 off    0x00026bad vaddr 0x00000000 paddr 0x00000000 align 2**0
         filesz 0x00000030 memsz 0x00000000 flags r--
    LOAD off    0x00001000 vaddr 0x00000000 paddr 0x00000000 align 2**12
         filesz 0x000039e8 memsz 0x000039e8 flags r-x
    LOAD off    0x00005000 vaddr 0x20000000 paddr 0x000039e8 align 2**12
         filesz 0x00000248 memsz 0x000006ec flags rw-
    LOAD off    0x00000600 vaddr 0x20001600 paddr 0x20001600 align 2**12
         filesz 0x00000000 memsz 0x00000200 flags rw-

Sections:
Idx Name          Size      VMA       LMA       File off  Algn
  0 .init         000000a8  00000000  00000000  00001000  2**2
                  CONTENTS, ALLOC, LOAD, READONLY, CODE
  1 .text         00003940  000000a8  000000a8  000010a8  2**2
                  CONTENTS, ALLOC, LOAD, READONLY, CODE
  2 .fini         00000000  000039e8  000039e8  00005248  2**0
                  CONTENTS, ALLOC, LOAD, CODE
  3 .dalign       00000000  20000000  20000000  00005248  2**0
                  CONTENTS
  4 .dlalign      00000000  000039e8  000039e8  00005248  2**0
                  CONTENTS
  5 .data         00000248  20000000  000039e8  00005000  2**2
                  CONTENTS, ALLOC, LOAD, DATA
  6 .bss          000004a4  20000248  00003c30  00005248  2**2
                  ALLOC
  7 .stack        00000200  20001600  20001600  00005600  2**0
                  ALLOC
  8 .debug_info   00009e70  00000000  00000000  00005248  2**0
                  CONTENTS, READONLY, DEBUGGING, OCTETS
  9 .debug_abbrev 00001d48  00000000  00000000  0000f0b8  2**0
                  CONTENTS, READONLY, DEBUGGING, OCTETS
 10 .debug_loclists 000046d4  00000000  00000000  00010e00  2**0
                  CONTENTS, READONLY, DEBUGGING, OCTETS
 11 .debug_aranges 00000a80  00000000  00000000  000154d8  2**3
                  CONTENTS, READONLY, DEBUGGING, OCTETS
 12 .debug_rnglists 00000ba5  00000000  00000000  00015f58  2**0
                  CONTENTS, READONLY, DEBUGGING, OCTETS
 13 .debug_line   0000c65e  00000000  00000000  00016afd  2**0
                  CONTENTS, READONLY, DEBUGGING, OCTETS
 14 .debug_str    00003454  00000000  00000000  0002315b  2**0
                  CONTENTS, READONLY, DEBUGGING, OCTETS
 15 .debug_line_str 000005cd  00000000  00000000  000265af  2**0
                  CONTENTS, READONLY, DEBUGGING, OCTETS
 16 .comment      00000031  00000000  00000000  00026b7c  2**0
                  CONTENTS, READONLY
 17 .riscv.attributes 00000030  00000000  00000000  00026bad  2**0
                  CONTENTS, READONLY
 18 .debug_frame  00001728  00000000  00000000  00026be0  2**2
                  CONTENTS, READONLY, DEBUGGING, OCTETS
SYMBOL TABLE:
00000000 l    d  .init	00000000 .init
000000a8 l    d  .text	00000000 .text
000039e8 l    d  .fini	00000000 .fini
20000000 l    d  .dalign	00000000 .dalign
000039e8 l    d  .dlalign	00000000 .dlalign
20000000 l    d  .data	00000000 .data
20000248 l    d  .bss	00000000 .bss
20001600 l    d  .stack	00000000 .stack
00000000 l    d  .debug_info	00000000 .debug_info
00000000 l    d  .debug_abbrev	00000000 .debug_abbrev
00000000 l    d  .debug_loclists	00000000 .debug_loclists
00000000 l    d  .debug_aranges	00000000 .debug_aranges
00000000 l    d  .debug_rnglists	00000000 .debug_rnglists
00000000 l    d  .debug_line	00000000 .debug_line
00000000 l    d  .debug_str	00000000 .debug_str
00000000 l    d  .debug_line_str	00000000 .debug_line_str
00000000 l    d  .comment	00000000 .comment
00000000 l    d  .riscv.attributes	00000000 .riscv.attributes
00000000 l    d  .debug_frame	00000000 .debug_frame
00000000 l    df *ABS*	00000000 startup_ch32v00X.o
00000000 l    df *ABS*	00000000 save-restore.o
00000000 l    df *ABS*	00000000 div.o
00000000 l    df *ABS*	00000000 lib_a-memset.o
00000000 l    df *ABS*	00000000 OLED.c
00000000 l    df *ABS*	00000000 ch32v00X_it.c
00000000 l    df *ABS*	00000000 main.c
00000000 l    df *ABS*	00000000 system_ch32v00X.c
00000000 l    df *ABS*	00000000 ch32v00X_adc.c
00000000 l    df *ABS*	00000000 ch32v00X_dma.c
00000000 l    df *ABS*	00000000 ch32v00X_flash.c
00000fa8 l     F .text	00000034 FLASH_ProgramPage_Fast.part.0
00000000 l    df *ABS*	00000000 ch32v00X_gpio.c
00000000 l    df *ABS*	00000000 ch32v00X_misc.c
00000000 l    df *ABS*	00000000 ch32v00X_opa.c
00000000 l    df *ABS*	00000000 ch32v00X_rcc.c
00000000 l    df *ABS*	00000000 ch32v00X_tim.c
00000000 l    df *ABS*	00000000 debug.c
200006ea l     O .bss	00000001 p_us
200006e8 l     O .bss	00000002 p_ms
00000000 l    df *ABS*	00000000 addsf3.o
00000000 l    df *ABS*	00000000 divsf3.o
00000000 l    df *ABS*	00000000 gesf2.o
00000000 l    df *ABS*	00000000 lesf2.o
00000000 l    df *ABS*	00000000 mulsf3.o
00000000 l    df *ABS*	00000000 subsf3.o
00000000 l    df *ABS*	00000000 fixunssfsi.o
00000000 l    df *ABS*	00000000 floatsisf.o
00000000 l    df *ABS*	00000000 floatunsisf.o
00000000 l    df *ABS*	00000000 _clzsi2.o
00000cbc  w      .text	00000000 OPCM_IRQHandler
00000fdc g     F .text	0000001a FLASH_Unlock
00000f68 g     F .text	00000014 DMA_Cmd
00000452 g     F .text	00000086 OLED_ShowNum
20000a48 g       .data	00000000 __global_pointer$
00000f9e g     F .text	00000002 DMA_GetITStatus
00000cbc  w      .text	00000000 TIM1_CC_IRQHandler
0000078a g     F .text	00000010 HardFault_Handler
00000dd0 g     F .text	00000012 ADC_DMACmd
00001d98 g     F .text	00000344 .hidden __divsf3
00001970 g     F .text	0000003e TIM_OC1PreloadConfig
00000cbc  w      .text	00000000 SysTick_Handler
000010fc g     F .text	00000054 FLASH_BufLoad
000015fa g     F .text	00000062 NVIC_Init
00000cbc  w      .text	00000000 PVD_IRQHandler
00000788 g     F .text	00000002 NMI_Handler
00000a1a g     F .text	0000006e OPA1_Init
20000248 g       .bss	00000000 _sbss
00000200 g       *ABS*	00000000 __stack_size
00000e6e g     F .text	00000018 ADC_ExternalTrigConvCmd
00000f30 g     F .text	00000038 DMA_Init
000024e6 g     F .text	00000380 .hidden __subsf3
00001150 g     F .text	0000003c FLASH_OptionBytePR
000000b2 g     F .text	0000000a .hidden __riscv_restore_2
00001902 g     F .text	00000016 TIM_CtrlPWMOutputs
00000dc0 g     F .text	00000010 ADC_Cmd
0000064e g     F .text	0000013a OLED_Init
00001264 g     F .text	000000a2 GPIO_PinRemapConfig
0000177a g     F .text	0000001e RCC_PB2PeriphResetCmd
000018ac g     F .text	00000056 TIM_Cmd
000004f8 g     F .text	00000156 OLED_ShowFloat
000000c4 g     F .text	0000002c .hidden __hidden___udivsi3
20000244 g     O .data	00000004 SystemCoreClock
000000c4 g     F .text	0000002c .hidden __udivsi3
000004d8 g     F .text	00000020 Get_numlen
000000a8 g       .init	00000000 _einit
00002172 g     F .text	00000098 .hidden __lesf2
0000109c g     F .text	0000001e FLASH_Unlock_Fast
000011e6 g     F .text	00000076 GPIO_Init
00001728 g     F .text	00000016 RCC_ADCCLKConfig
200006e4 g     O .bss	00000004 NVIC_Priority_Group
00000cbc  w      .text	00000000 SPI1_IRQHandler
000000a8 g     F .text	0000000a .hidden __riscv_save_1
200006c8 g     O .bss	00000004 Temp
00002abc g     O .text	00000d5c asc2_2412
000000b2 g     F .text	0000000a .hidden __riscv_restore_0
00000cbc  w      .text	00000000 AWU_IRQHandler
00000cbc  w      .text	00000000 EXTI7_0_IRQHandler
00000fa0 g     F .text	00000008 DMA_ClearITPendingBit
00000262 g     F .text	0000006c OLED_Refresh
000008d0 g     F .text	000000c6 TIM1_PWM_In
0000170e g     F .text	0000001a OPA_Cmd
0000118c g     F .text	0000005a FLASH_UserOptionByteConfig
20001600 g       .stack	00000000 _heap_end
000019de g     F .text	0000002e Delay_Us
00000cbc  w      .text	00000000 DMA1_Channel4_IRQHandler
00000de2 g     F .text	0000008c ADC_RegularChannelConfig
00000cbc  w      .text	00000000 ADC1_IRQHandler
00000ff6 g     F .text	0000000e FLASH_Lock
00000f90 g     F .text	0000000e DMA_GetFlagStatus
200006ec g       .bss	00000000 _ebss
0000103a g     F .text	00000062 FLASH_EraseOptionBytes
00000cbc  w      .text	00000000 DMA1_Channel7_IRQHandler
00001804 g     F .text	000000a8 TIM_OC1Init
00000334 g     F .text	000000d2 OLED_ShowChar
000019ae g     F .text	00000030 Delay_Init
0000175c g     F .text	0000001e RCC_PB2PeriphClockCmd
00001306 g     F .text	000002f4 GPIO_IPD_Unused
000020dc g     F .text	00000096 .hidden __gtsf2
0000125c g     F .text	00000004 GPIO_SetBits
00000406 g     F .text	0000004c OLED_ShowString
00001918 g     F .text	00000058 TIM_ARRPreloadConfig
000000f0 g     F .text	00000008 .hidden __umodsi3
00000cbc  w      .text	00000000 I2C1_EV_IRQHandler
00000cbc  w      .text	00000000 DMA1_Channel6_IRQHandler
00002a52 g     F .text	00000068 .hidden __clzsi2
000002fc g     F .text	00000038 OLED_DrawPoint
00000cbc  w      .text	00000000 RCC_IRQHandler
00000cbc  w      .text	00000000 TIM1_TRG_COM_IRQHandler
00000b60 g     F .text	00000034 DMA1_Channel1_IRQHandler
00000000 g       .init	00000000 _start
0000173e g     F .text	0000001e RCC_HBPeriphClockCmd
0000101a g     F .text	00000020 FLASH_WaitForLastOperation
000028b8 g     F .text	000000d4 .hidden __floatsisf
000001b2 g     F .text	0000002e I2C_WaitAck
00001260 g     F .text	00000004 GPIO_ResetBits
20000000 g       .dalign	00000000 _data_vma
00001676 g     F .text	00000098 OPA_Init
000002ce g     F .text	0000002e OLED_Clear
0000013a g     F .text	00000010 memset
200006cc g     O .bss	00000004 Adc_Val
00000996 g     F .text	00000084 DMA_Tx_Init
00000a88 g     F .text	000000d8 main
00002172 g     F .text	00000098 .hidden __ltsf2
0000014a g     F .text	00000006 IIC_delay
200006d0 g     O .bss	00000014 AdcBuf
00000cbc  w      .text	00000000 DMA1_Channel5_IRQHandler
000000bc g     F .text	00000058 .hidden __divsi3
00001a0c g     F .text	0000002e Delay_Ms
0000220a g     F .text	000002dc .hidden __mulsf3
00000e86 g     F .text	00000018 ADC_BufferCmd
0000165c g     F .text	0000001a OPA_Unlock
00000b94 g     F .text	000000c2 SystemInit
000038e8 g     O .text	00000100 .hidden __clz_tab
00000000 g       .init	00000000 _sinit
000010c8 g     F .text	00000034 FLASH_BufReset
000020dc g     F .text	00000096 .hidden __gesf2
00000cbc  w      .text	00000000 DMA1_Channel3_IRQHandler
00000150 g     F .text	00000038 I2C_Start
00000836 g     F .text	0000009a ADC_Function_Init
00000cbc  w      .text	00000000 TIM1_UP_IRQHandler
00000cbc  w      .text	00000000 WWDG_IRQHandler
00000f7c g     F .text	00000014 DMA_ITConfig
00000cbc  w      .text	00000000 TIM2_IRQHandler
20001800 g       .stack	00000000 _eusrstack
000000a8 g     F .text	0000000a .hidden __riscv_save_2
00000cbc  w      .text	00000000 SW_Handler
00000d48 g     F .text	0000002a ADC_DeInit
000010ba g     F .text	0000000e FLASH_Lock_Fast
00000cbc  w      .text	00000000 TIM1_BRK_IRQHandler
00000d72 g     F .text	0000004e ADC_Init
20000248 g       .data	00000000 _edata
200006ec g       .bss	00000000 _end
00001798 g     F .text	0000006c TIM_TimeBaseInit
000039e8 g       .dlalign	00000000 _data_lma
00000cbc  w      .text	00000000 USART2_IRQHandler
00000c56 g     F .text	00000066 SystemCoreClockUpdate
0000298c g     F .text	000000c6 .hidden __floatunsisf
20000000 g     O .data	00000234 value_to_temp_table
00000114 g     F .text	00000024 .hidden __modsi3
00000cbc  w      .text	00000000 DMA1_Channel2_IRQHandler
20000234 g     O .data	00000010 HBPrescTable
00000cbe  w      .text	00000000 handle_reset
20000248 g     O .bss	00000480 OLED_GRAM
00002866 g     F .text	00000052 .hidden __fixunssfsi
00000cbc  w      .text	00000000 FLASH_IRQHandler
000000a8 g     F .text	0000000a .hidden __riscv_save_0
00000188 g     F .text	0000002a I2C_Stop
00000cbc  w      .text	00000000 USART1_IRQHandler
0000079a g     F .text	0000009c get_closest_temp
00000cbc  w      .text	00000000 I2C1_ER_IRQHandler
00000e9e g     F .text	00000092 DMA_DeInit
000000b2 g     F .text	0000000a .hidden __riscv_restore_1
0000023a g     F .text	00000028 OLED_WR_Byte
000001e0 g     F .text	0000005a Send_Byte
00001004 g     F .text	00000016 FLASH_GetBank1Status
00001a3a g     F .text	0000035e .hidden __addsf3



Disassembly of section .init:

00000000 <_sinit>:
   0:	4bf0006f          	j	cbe <handle_reset>
   4:	00000000          	.word	0x00000000
   8:	00000788          	.word	0x00000788
   c:	0000078a          	.word	0x0000078a
	...
  30:	00000cbc          	.word	0x00000cbc
  34:	00000000          	.word	0x00000000
  38:	00000cbc          	.word	0x00000cbc
  3c:	00000000          	.word	0x00000000
  40:	00000cbc          	.word	0x00000cbc
  44:	00000cbc          	.word	0x00000cbc
  48:	00000cbc          	.word	0x00000cbc
  4c:	00000cbc          	.word	0x00000cbc
  50:	00000cbc          	.word	0x00000cbc
  54:	00000cbc          	.word	0x00000cbc
  58:	00000b60          	.word	0x00000b60
  5c:	00000cbc          	.word	0x00000cbc
  60:	00000cbc          	.word	0x00000cbc
  64:	00000cbc          	.word	0x00000cbc
  68:	00000cbc          	.word	0x00000cbc
  6c:	00000cbc          	.word	0x00000cbc
  70:	00000cbc          	.word	0x00000cbc
  74:	00000cbc          	.word	0x00000cbc
  78:	00000cbc          	.word	0x00000cbc
  7c:	00000cbc          	.word	0x00000cbc
  80:	00000cbc          	.word	0x00000cbc
  84:	00000cbc          	.word	0x00000cbc
  88:	00000cbc          	.word	0x00000cbc
  8c:	00000cbc          	.word	0x00000cbc
  90:	00000cbc          	.word	0x00000cbc
  94:	00000cbc          	.word	0x00000cbc
  98:	00000cbc          	.word	0x00000cbc
  9c:	00000cbc          	.word	0x00000cbc
  a0:	00000cbc          	.word	0x00000cbc
  a4:	0000                	unimp
	...

Disassembly of section .text:

000000a8 <__riscv_save_0>:
      a8:	1151                	addi	sp,sp,-12
      aa:	c026                	sw	s1,0(sp)
      ac:	c222                	sw	s0,4(sp)
      ae:	c406                	sw	ra,8(sp)
      b0:	8282                	jr	t0

000000b2 <__riscv_restore_0>:
      b2:	4482                	lw	s1,0(sp)
      b4:	4412                	lw	s0,4(sp)
      b6:	40a2                	lw	ra,8(sp)
      b8:	0131                	addi	sp,sp,12
      ba:	8082                	ret

000000bc <__divsi3>:
      bc:	02054e63          	bltz	a0,f8 <__umodsi3+0x8>
      c0:	0405c363          	bltz	a1,106 <__umodsi3+0x16>

000000c4 <__hidden___udivsi3>:
      c4:	862e                	mv	a2,a1
      c6:	85aa                	mv	a1,a0
      c8:	557d                	li	a0,-1
      ca:	c215                	beqz	a2,ee <__hidden___udivsi3+0x2a>
      cc:	4685                	li	a3,1
      ce:	00b67863          	bgeu	a2,a1,de <__hidden___udivsi3+0x1a>
      d2:	00c05663          	blez	a2,de <__hidden___udivsi3+0x1a>
      d6:	0606                	slli	a2,a2,0x1
      d8:	0686                	slli	a3,a3,0x1
      da:	feb66ce3          	bltu	a2,a1,d2 <__hidden___udivsi3+0xe>
      de:	4501                	li	a0,0
      e0:	00c5e463          	bltu	a1,a2,e8 <__hidden___udivsi3+0x24>
      e4:	8d91                	sub	a1,a1,a2
      e6:	8d55                	or	a0,a0,a3
      e8:	8285                	srli	a3,a3,0x1
      ea:	8205                	srli	a2,a2,0x1
      ec:	faf5                	bnez	a3,e0 <__hidden___udivsi3+0x1c>
      ee:	8082                	ret

000000f0 <__umodsi3>:
      f0:	8286                	mv	t0,ra
      f2:	3fc9                	jal	c4 <__hidden___udivsi3>
      f4:	852e                	mv	a0,a1
      f6:	8282                	jr	t0
      f8:	40a00533          	neg	a0,a0
      fc:	00b04763          	bgtz	a1,10a <__umodsi3+0x1a>
     100:	40b005b3          	neg	a1,a1
     104:	b7c1                	j	c4 <__hidden___udivsi3>
     106:	40b005b3          	neg	a1,a1
     10a:	8286                	mv	t0,ra
     10c:	3f65                	jal	c4 <__hidden___udivsi3>
     10e:	40a00533          	neg	a0,a0
     112:	8282                	jr	t0

00000114 <__modsi3>:
     114:	8286                	mv	t0,ra
     116:	0005c763          	bltz	a1,124 <__modsi3+0x10>
     11a:	00054963          	bltz	a0,12c <__modsi3+0x18>
     11e:	375d                	jal	c4 <__hidden___udivsi3>
     120:	852e                	mv	a0,a1
     122:	8282                	jr	t0
     124:	40b005b3          	neg	a1,a1
     128:	fe055be3          	bgez	a0,11e <__modsi3+0xa>
     12c:	40a00533          	neg	a0,a0
     130:	3f51                	jal	c4 <__hidden___udivsi3>
     132:	40b00533          	neg	a0,a1
     136:	8282                	jr	t0
	...

0000013a <memset>:
     13a:	832a                	mv	t1,a0
     13c:	c611                	beqz	a2,148 <memset+0xe>
     13e:	00b30023          	sb	a1,0(t1)
     142:	167d                	addi	a2,a2,-1
     144:	0305                	addi	t1,t1,1
     146:	fe65                	bnez	a2,13e <memset+0x4>
     148:	8082                	ret

0000014a <IIC_delay>:
     14a:	450d                	li	a0,3
     14c:	0930106f          	j	19de <Delay_Us>

00000150 <I2C_Start>:
     150:	f59ff2ef          	jal	t0,a8 <__riscv_save_0>
     154:	40011437          	lui	s0,0x40011
     158:	40040513          	addi	a0,s0,1024 # 40011400 <_eusrstack+0x2000fc00>
     15c:	4585                	li	a1,1
     15e:	0fe010ef          	jal	ra,125c <GPIO_SetBits>
     162:	40040513          	addi	a0,s0,1024
     166:	4589                	li	a1,2
     168:	0f4010ef          	jal	ra,125c <GPIO_SetBits>
     16c:	3ff9                	jal	14a <IIC_delay>
     16e:	40040513          	addi	a0,s0,1024
     172:	4585                	li	a1,1
     174:	0ec010ef          	jal	ra,1260 <GPIO_ResetBits>
     178:	3fc9                	jal	14a <IIC_delay>
     17a:	4589                	li	a1,2
     17c:	40040513          	addi	a0,s0,1024
     180:	0e0010ef          	jal	ra,1260 <GPIO_ResetBits>
     184:	37d9                	jal	14a <IIC_delay>
     186:	b735                	j	b2 <__riscv_restore_0>

00000188 <I2C_Stop>:
     188:	f21ff2ef          	jal	t0,a8 <__riscv_save_0>
     18c:	40011437          	lui	s0,0x40011
     190:	40040513          	addi	a0,s0,1024 # 40011400 <_eusrstack+0x2000fc00>
     194:	4585                	li	a1,1
     196:	0ca010ef          	jal	ra,1260 <GPIO_ResetBits>
     19a:	40040513          	addi	a0,s0,1024
     19e:	4589                	li	a1,2
     1a0:	0bc010ef          	jal	ra,125c <GPIO_SetBits>
     1a4:	375d                	jal	14a <IIC_delay>
     1a6:	4585                	li	a1,1
     1a8:	40040513          	addi	a0,s0,1024
     1ac:	0b0010ef          	jal	ra,125c <GPIO_SetBits>
     1b0:	b709                	j	b2 <__riscv_restore_0>

000001b2 <I2C_WaitAck>:
     1b2:	ef7ff2ef          	jal	t0,a8 <__riscv_save_0>
     1b6:	40011437          	lui	s0,0x40011
     1ba:	40040513          	addi	a0,s0,1024 # 40011400 <_eusrstack+0x2000fc00>
     1be:	4585                	li	a1,1
     1c0:	09c010ef          	jal	ra,125c <GPIO_SetBits>
     1c4:	3759                	jal	14a <IIC_delay>
     1c6:	40040513          	addi	a0,s0,1024
     1ca:	4589                	li	a1,2
     1cc:	090010ef          	jal	ra,125c <GPIO_SetBits>
     1d0:	3fad                	jal	14a <IIC_delay>
     1d2:	4589                	li	a1,2
     1d4:	40040513          	addi	a0,s0,1024
     1d8:	088010ef          	jal	ra,1260 <GPIO_ResetBits>
     1dc:	37bd                	jal	14a <IIC_delay>
     1de:	bdd1                	j	b2 <__riscv_restore_0>

000001e0 <Send_Byte>:
     1e0:	ec9ff2ef          	jal	t0,a8 <__riscv_save_0>
     1e4:	1171                	addi	sp,sp,-4
     1e6:	47a1                	li	a5,8
     1e8:	842a                	mv	s0,a0
     1ea:	c03e                	sw	a5,0(sp)
     1ec:	400114b7          	lui	s1,0x40011
     1f0:	01841793          	slli	a5,s0,0x18
     1f4:	87e1                	srai	a5,a5,0x18
     1f6:	4585                	li	a1,1
     1f8:	40048513          	addi	a0,s1,1024 # 40011400 <_eusrstack+0x2000fc00>
     1fc:	0207dc63          	bgez	a5,234 <__stack_size+0x34>
     200:	05c010ef          	jal	ra,125c <GPIO_SetBits>
     204:	3799                	jal	14a <IIC_delay>
     206:	4589                	li	a1,2
     208:	40048513          	addi	a0,s1,1024
     20c:	050010ef          	jal	ra,125c <GPIO_SetBits>
     210:	3f2d                	jal	14a <IIC_delay>
     212:	4589                	li	a1,2
     214:	40048513          	addi	a0,s1,1024
     218:	048010ef          	jal	ra,1260 <GPIO_ResetBits>
     21c:	373d                	jal	14a <IIC_delay>
     21e:	4782                	lw	a5,0(sp)
     220:	0406                	slli	s0,s0,0x1
     222:	0ff47413          	zext.b	s0,s0
     226:	17fd                	addi	a5,a5,-1
     228:	0ff7f793          	zext.b	a5,a5
     22c:	c03e                	sw	a5,0(sp)
     22e:	f3e9                	bnez	a5,1f0 <Send_Byte+0x10>
     230:	0111                	addi	sp,sp,4
     232:	b541                	j	b2 <__riscv_restore_0>
     234:	02c010ef          	jal	ra,1260 <GPIO_ResetBits>
     238:	b7f1                	j	204 <__stack_size+0x4>

0000023a <OLED_WR_Byte>:
     23a:	e6fff2ef          	jal	t0,a8 <__riscv_save_0>
     23e:	84ae                	mv	s1,a1
     240:	842a                	mv	s0,a0
     242:	3739                	jal	150 <I2C_Start>
     244:	07800513          	li	a0,120
     248:	3f61                	jal	1e0 <Send_Byte>
     24a:	37a5                	jal	1b2 <I2C_WaitAck>
     24c:	04000513          	li	a0,64
     250:	e091                	bnez	s1,254 <OLED_WR_Byte+0x1a>
     252:	4501                	li	a0,0
     254:	3771                	jal	1e0 <Send_Byte>
     256:	3fb1                	jal	1b2 <I2C_WaitAck>
     258:	8522                	mv	a0,s0
     25a:	3759                	jal	1e0 <Send_Byte>
     25c:	3f99                	jal	1b2 <I2C_WaitAck>
     25e:	372d                	jal	188 <I2C_Stop>
     260:	bd89                	j	b2 <__riscv_restore_0>

00000262 <OLED_Refresh>:
     262:	e47ff2ef          	jal	t0,a8 <__riscv_save_0>
     266:	200004b7          	lui	s1,0x20000
     26a:	1161                	addi	sp,sp,-8
     26c:	4401                	li	s0,0
     26e:	24848493          	addi	s1,s1,584 # 20000248 <OLED_GRAM>
     272:	fb040513          	addi	a0,s0,-80
     276:	4581                	li	a1,0
     278:	0ff57513          	zext.b	a0,a0
     27c:	3f7d                	jal	23a <OLED_WR_Byte>
     27e:	4581                	li	a1,0
     280:	4509                	li	a0,2
     282:	3f65                	jal	23a <OLED_WR_Byte>
     284:	4581                	li	a1,0
     286:	4541                	li	a0,16
     288:	3f4d                	jal	23a <OLED_WR_Byte>
     28a:	35d9                	jal	150 <I2C_Start>
     28c:	07800513          	li	a0,120
     290:	3f81                	jal	1e0 <Send_Byte>
     292:	3705                	jal	1b2 <I2C_WaitAck>
     294:	04000513          	li	a0,64
     298:	37a1                	jal	1e0 <Send_Byte>
     29a:	3f21                	jal	1b2 <I2C_WaitAck>
     29c:	00940733          	add	a4,s0,s1
     2a0:	4781                	li	a5,0
     2a2:	2308                	lbu	a0,0(a4)
     2a4:	c23e                	sw	a5,4(sp)
     2a6:	c03a                	sw	a4,0(sp)
     2a8:	3f25                	jal	1e0 <Send_Byte>
     2aa:	3721                	jal	1b2 <I2C_WaitAck>
     2ac:	4792                	lw	a5,4(sp)
     2ae:	4702                	lw	a4,0(sp)
     2b0:	08000693          	li	a3,128
     2b4:	0785                	addi	a5,a5,1
     2b6:	0ff7f793          	zext.b	a5,a5
     2ba:	0721                	addi	a4,a4,8
     2bc:	fed793e3          	bne	a5,a3,2a2 <OLED_Refresh+0x40>
     2c0:	35e1                	jal	188 <I2C_Stop>
     2c2:	0405                	addi	s0,s0,1
     2c4:	47a1                	li	a5,8
     2c6:	faf416e3          	bne	s0,a5,272 <OLED_Refresh+0x10>
     2ca:	0121                	addi	sp,sp,8
     2cc:	b3dd                	j	b2 <__riscv_restore_0>

000002ce <OLED_Clear>:
     2ce:	20000637          	lui	a2,0x20000
     2d2:	4701                	li	a4,0
     2d4:	24860613          	addi	a2,a2,584 # 20000248 <OLED_GRAM>
     2d8:	08000593          	li	a1,128
     2dc:	4521                	li	a0,8
     2de:	00c706b3          	add	a3,a4,a2
     2e2:	4781                	li	a5,0
     2e4:	0785                	addi	a5,a5,1
     2e6:	00068023          	sb	zero,0(a3)
     2ea:	0ff7f793          	zext.b	a5,a5
     2ee:	06a1                	addi	a3,a3,8
     2f0:	feb79ae3          	bne	a5,a1,2e4 <OLED_Clear+0x16>
     2f4:	0705                	addi	a4,a4,1
     2f6:	fea714e3          	bne	a4,a0,2de <OLED_Clear+0x10>
     2fa:	b7a5                	j	262 <OLED_Refresh>

000002fc <OLED_DrawPoint>:
     2fc:	0075f793          	andi	a5,a1,7
     300:	4705                	li	a4,1
     302:	00f71733          	sll	a4,a4,a5
     306:	200007b7          	lui	a5,0x20000
     30a:	24878693          	addi	a3,a5,584 # 20000248 <OLED_GRAM>
     30e:	050e                	slli	a0,a0,0x3
     310:	818d                	srli	a1,a1,0x3
     312:	96aa                	add	a3,a3,a0
     314:	96ae                	add	a3,a3,a1
     316:	2294                	lbu	a3,0(a3)
     318:	0ff77713          	zext.b	a4,a4
     31c:	24878793          	addi	a5,a5,584
     320:	c611                	beqz	a2,32c <OLED_DrawPoint+0x30>
     322:	8ed9                	or	a3,a3,a4
     324:	97aa                	add	a5,a5,a0
     326:	97ae                	add	a5,a5,a1
     328:	a394                	sb	a3,0(a5)
     32a:	8082                	ret
     32c:	fff74713          	not	a4,a4
     330:	8ef9                	and	a3,a3,a4
     332:	bfcd                	j	324 <OLED_DrawPoint+0x28>

00000334 <OLED_ShowChar>:
     334:	d75ff2ef          	jal	t0,a8 <__riscv_save_0>
     338:	1101                	addi	sp,sp,-32
     33a:	87b2                	mv	a5,a2
     33c:	c03a                	sw	a4,0(sp)
     33e:	4621                	li	a2,8
     340:	832a                	mv	t1,a0
     342:	82ae                	mv	t0,a1
     344:	4719                	li	a4,6
     346:	00c68f63          	beq	a3,a2,364 <OLED_ShowChar+0x30>
     34a:	0076f713          	andi	a4,a3,7
     34e:	0036d613          	srli	a2,a3,0x3
     352:	00e03733          	snez	a4,a4
     356:	9732                	add	a4,a4,a2
     358:	0016d613          	srli	a2,a3,0x1
     35c:	02c70733          	mul	a4,a4,a2
     360:	0ff77713          	zext.b	a4,a4
     364:	1781                	addi	a5,a5,-32
     366:	02400613          	li	a2,36
     36a:	0ff7f793          	zext.b	a5,a5
     36e:	02c787b3          	mul	a5,a5,a2
     372:	660d                	lui	a2,0x3
     374:	abc60613          	addi	a2,a2,-1348 # 2abc <asc2_2412>
     378:	97b2                	add	a5,a5,a2
     37a:	00e78433          	add	s0,a5,a4
     37e:	00878a63          	beq	a5,s0,392 <OLED_ShowChar+0x5e>
     382:	4702                	lw	a4,0(sp)
     384:	4661                	li	a2,24
     386:	851a                	mv	a0,t1
     388:	00173713          	seqz	a4,a4
     38c:	c23a                	sw	a4,4(sp)
     38e:	00c68663          	beq	a3,a2,39a <OLED_ShowChar+0x66>
     392:	6105                	addi	sp,sp,32
     394:	bb39                	j	b2 <__riscv_restore_0>
     396:	82a6                	mv	t0,s1
     398:	851a                	mv	a0,t1
     39a:	2394                	lbu	a3,0(a5)
     39c:	00828493          	addi	s1,t0,8
     3a0:	0ff4f493          	zext.b	s1,s1
     3a4:	8596                	mv	a1,t0
     3a6:	0016f613          	andi	a2,a3,1
     3aa:	ce16                	sw	t0,28(sp)
     3ac:	cc1a                	sw	t1,24(sp)
     3ae:	ca36                	sw	a3,20(sp)
     3b0:	c83e                	sw	a5,16(sp)
     3b2:	ce05                	beqz	a2,3ea <OLED_ShowChar+0xb6>
     3b4:	4602                	lw	a2,0(sp)
     3b6:	c62e                	sw	a1,12(sp)
     3b8:	c42a                	sw	a0,8(sp)
     3ba:	3789                	jal	2fc <OLED_DrawPoint>
     3bc:	4522                	lw	a0,8(sp)
     3be:	45b2                	lw	a1,12(sp)
     3c0:	47c2                	lw	a5,16(sp)
     3c2:	46d2                	lw	a3,20(sp)
     3c4:	4362                	lw	t1,24(sp)
     3c6:	42f2                	lw	t0,28(sp)
     3c8:	0585                	addi	a1,a1,1
     3ca:	0ff5f593          	zext.b	a1,a1
     3ce:	8285                	srli	a3,a3,0x1
     3d0:	fcb49be3          	bne	s1,a1,3a6 <OLED_ShowChar+0x72>
     3d4:	0505                	addi	a0,a0,1
     3d6:	0ff57513          	zext.b	a0,a0
     3da:	ff450693          	addi	a3,a0,-12
     3de:	0785                	addi	a5,a5,1
     3e0:	02669063          	bne	a3,t1,400 <OLED_ShowChar+0xcc>
     3e4:	fa8799e3          	bne	a5,s0,396 <OLED_ShowChar+0x62>
     3e8:	b76d                	j	392 <OLED_ShowChar+0x5e>
     3ea:	4612                	lw	a2,4(sp)
     3ec:	c62e                	sw	a1,12(sp)
     3ee:	c42a                	sw	a0,8(sp)
     3f0:	3731                	jal	2fc <OLED_DrawPoint>
     3f2:	42f2                	lw	t0,28(sp)
     3f4:	4362                	lw	t1,24(sp)
     3f6:	46d2                	lw	a3,20(sp)
     3f8:	47c2                	lw	a5,16(sp)
     3fa:	45b2                	lw	a1,12(sp)
     3fc:	4522                	lw	a0,8(sp)
     3fe:	b7e9                	j	3c8 <OLED_ShowChar+0x94>
     400:	f8879de3          	bne	a5,s0,39a <OLED_ShowChar+0x66>
     404:	b779                	j	392 <OLED_ShowChar+0x5e>

00000406 <OLED_ShowString>:
     406:	ca3ff2ef          	jal	t0,a8 <__riscv_save_0>
     40a:	1141                	addi	sp,sp,-16
     40c:	842a                	mv	s0,a0
     40e:	84b2                	mv	s1,a2
     410:	0016d793          	srli	a5,a3,0x1
     414:	2090                	lbu	a2,0(s1)
     416:	05e00313          	li	t1,94
     41a:	fe060513          	addi	a0,a2,-32
     41e:	0ff57513          	zext.b	a0,a0
     422:	00a37463          	bgeu	t1,a0,42a <OLED_ShowString+0x24>
     426:	0141                	addi	sp,sp,16
     428:	b169                	j	b2 <__riscv_restore_0>
     42a:	8522                	mv	a0,s0
     42c:	c63e                	sw	a5,12(sp)
     42e:	c43a                	sw	a4,8(sp)
     430:	c236                	sw	a3,4(sp)
     432:	c02e                	sw	a1,0(sp)
     434:	3701                	jal	334 <OLED_ShowChar>
     436:	4692                	lw	a3,4(sp)
     438:	4621                	li	a2,8
     43a:	4582                	lw	a1,0(sp)
     43c:	4722                	lw	a4,8(sp)
     43e:	47b2                	lw	a5,12(sp)
     440:	00c69763          	bne	a3,a2,44e <OLED_ShowString+0x48>
     444:	0419                	addi	s0,s0,6
     446:	0ff47413          	zext.b	s0,s0
     44a:	0485                	addi	s1,s1,1
     44c:	b7e1                	j	414 <OLED_ShowString+0xe>
     44e:	943e                	add	s0,s0,a5
     450:	bfdd                	j	446 <OLED_ShowString+0x40>

00000452 <OLED_ShowNum>:
     452:	c57ff2ef          	jal	t0,a8 <__riscv_save_0>
     456:	1131                	addi	sp,sp,-20
     458:	c43e                	sw	a5,8(sp)
     45a:	ff870793          	addi	a5,a4,-8
     45e:	0017b793          	seqz	a5,a5
     462:	84ba                	mv	s1,a4
     464:	0786                	slli	a5,a5,0x1
     466:	8305                	srli	a4,a4,0x1
     468:	97ba                	add	a5,a5,a4
     46a:	16fd                	addi	a3,a3,-1
     46c:	c02a                	sw	a0,0(sp)
     46e:	c22e                	sw	a1,4(sp)
     470:	c832                	sw	a2,16(sp)
     472:	c63e                	sw	a5,12(sp)
     474:	0ff6f413          	zext.b	s0,a3
     478:	0ff00793          	li	a5,255
     47c:	04f41163          	bne	s0,a5,4be <OLED_ShowNum+0x6c>
     480:	0151                	addi	sp,sp,20
     482:	b905                	j	b2 <__riscv_restore_0>
     484:	02d585b3          	mul	a1,a1,a3
     488:	17fd                	addi	a5,a5,-1
     48a:	0ff7f793          	zext.b	a5,a5
     48e:	fee79be3          	bne	a5,a4,484 <OLED_ShowNum+0x32>
     492:	4542                	lw	a0,16(sp)
     494:	3905                	jal	c4 <__hidden___udivsi3>
     496:	45a9                	li	a1,10
     498:	39a1                	jal	f0 <__umodsi3>
     49a:	e905                	bnez	a0,4ca <OLED_ShowNum+0x78>
     49c:	4722                	lw	a4,8(sp)
     49e:	86a6                	mv	a3,s1
     4a0:	03000613          	li	a2,48
     4a4:	4592                	lw	a1,4(sp)
     4a6:	4502                	lw	a0,0(sp)
     4a8:	147d                	addi	s0,s0,-1
     4aa:	0ff47413          	zext.b	s0,s0
     4ae:	3559                	jal	334 <OLED_ShowChar>
     4b0:	4702                	lw	a4,0(sp)
     4b2:	47b2                	lw	a5,12(sp)
     4b4:	97ba                	add	a5,a5,a4
     4b6:	0ff7f793          	zext.b	a5,a5
     4ba:	c03e                	sw	a5,0(sp)
     4bc:	bf75                	j	478 <OLED_ShowNum+0x26>
     4be:	87a2                	mv	a5,s0
     4c0:	4585                	li	a1,1
     4c2:	0ff00713          	li	a4,255
     4c6:	46a9                	li	a3,10
     4c8:	b7c1                	j	488 <OLED_ShowNum+0x36>
     4ca:	03050513          	addi	a0,a0,48
     4ce:	4722                	lw	a4,8(sp)
     4d0:	86a6                	mv	a3,s1
     4d2:	0ff57613          	zext.b	a2,a0
     4d6:	b7f9                	j	4a4 <OLED_ShowNum+0x52>

000004d8 <Get_numlen>:
     4d8:	bd1ff2ef          	jal	t0,a8 <__riscv_save_0>
     4dc:	4405                	li	s0,1
     4de:	c919                	beqz	a0,4f4 <Get_numlen+0x1c>
     4e0:	4401                	li	s0,0
     4e2:	45a9                	li	a1,10
     4e4:	84aa                	mv	s1,a0
     4e6:	3ef9                	jal	c4 <__hidden___udivsi3>
     4e8:	0405                	addi	s0,s0,1
     4ea:	47a5                	li	a5,9
     4ec:	0ff47413          	zext.b	s0,s0
     4f0:	fe97e9e3          	bltu	a5,s1,4e2 <Get_numlen+0xa>
     4f4:	8522                	mv	a0,s0
     4f6:	be75                	j	b2 <__riscv_restore_0>

000004f8 <OLED_ShowFloat>:
     4f8:	bb1ff2ef          	jal	t0,a8 <__riscv_save_0>
     4fc:	1111                	addi	sp,sp,-28
     4fe:	c02e                	sw	a1,0(sp)
     500:	84aa                	mv	s1,a0
     502:	00000593          	li	a1,0
     506:	8532                	mv	a0,a2
     508:	c432                	sw	a2,8(sp)
     50a:	8436                	mv	s0,a3
     50c:	c23a                	sw	a4,4(sp)
     50e:	465010ef          	jal	ra,2172 <__lesf2>
     512:	6791                	lui	a5,0x4
     514:	4622                	lw	a2,8(sp)
     516:	8187a583          	lw	a1,-2024(a5) # 3818 <asc2_2412+0xd5c>
     51a:	06054363          	bltz	a0,580 <OLED_ShowFloat+0x88>
     51e:	8532                	mv	a0,a2
     520:	4eb010ef          	jal	ra,220a <__mulsf3>
     524:	342020ef          	jal	ra,2866 <__fixunssfsi>
     528:	45a9                	li	a1,10
     52a:	c62a                	sw	a0,12(sp)
     52c:	3e61                	jal	c4 <__hidden___udivsi3>
     52e:	c42a                	sw	a0,8(sp)
     530:	1479                	addi	s0,s0,-2
     532:	375d                	jal	4d8 <Get_numlen>
     534:	8c09                	sub	s0,s0,a0
     536:	0ff47413          	zext.b	s0,s0
     53a:	87aa                	mv	a5,a0
     53c:	e051                	bnez	s0,5c0 <OLED_ShowFloat+0xc8>
     53e:	8426                	mv	s0,s1
     540:	833e                	mv	t1,a5
     542:	0c031163          	bnez	t1,604 <OLED_ShowFloat+0x10c>
     546:	4731                	li	a4,12
     548:	02e787b3          	mul	a5,a5,a4
     54c:	4582                	lw	a1,0(sp)
     54e:	4712                	lw	a4,4(sp)
     550:	46e1                	li	a3,24
     552:	02e00613          	li	a2,46
     556:	94be                	add	s1,s1,a5
     558:	0ff4f493          	zext.b	s1,s1
     55c:	8526                	mv	a0,s1
     55e:	3bd9                	jal	334 <OLED_ShowChar>
     560:	4532                	lw	a0,12(sp)
     562:	45a9                	li	a1,10
     564:	04b1                	addi	s1,s1,12
     566:	3669                	jal	f0 <__umodsi3>
     568:	4712                	lw	a4,4(sp)
     56a:	4582                	lw	a1,0(sp)
     56c:	03050613          	addi	a2,a0,48
     570:	46e1                	li	a3,24
     572:	0ff67613          	zext.b	a2,a2
     576:	0ff4f513          	zext.b	a0,s1
     57a:	3b6d                	jal	334 <OLED_ShowChar>
     57c:	0171                	addi	sp,sp,28
     57e:	be15                	j	b2 <__riscv_restore_0>
     580:	80000537          	lui	a0,0x80000
     584:	8d31                	xor	a0,a0,a2
     586:	485010ef          	jal	ra,220a <__mulsf3>
     58a:	2dc020ef          	jal	ra,2866 <__fixunssfsi>
     58e:	45a9                	li	a1,10
     590:	c62a                	sw	a0,12(sp)
     592:	3e0d                	jal	c4 <__hidden___udivsi3>
     594:	c42a                	sw	a0,8(sp)
     596:	1475                	addi	s0,s0,-3
     598:	3781                	jal	4d8 <Get_numlen>
     59a:	8c09                	sub	s0,s0,a0
     59c:	0ff47413          	zext.b	s0,s0
     5a0:	87aa                	mv	a5,a0
     5a2:	4385                	li	t2,1
     5a4:	ec19                	bnez	s0,5c2 <OLED_ShowFloat+0xca>
     5a6:	4712                	lw	a4,4(sp)
     5a8:	4582                	lw	a1,0(sp)
     5aa:	8526                	mv	a0,s1
     5ac:	46e1                	li	a3,24
     5ae:	02d00613          	li	a2,45
     5b2:	c83e                	sw	a5,16(sp)
     5b4:	04b1                	addi	s1,s1,12
     5b6:	3bbd                	jal	334 <OLED_ShowChar>
     5b8:	47c2                	lw	a5,16(sp)
     5ba:	0ff4f493          	zext.b	s1,s1
     5be:	b741                	j	53e <OLED_ShowFloat+0x46>
     5c0:	4381                	li	t2,0
     5c2:	4301                	li	t1,0
     5c4:	42b1                	li	t0,12
     5c6:	02530533          	mul	a0,t1,t0
     5ca:	4712                	lw	a4,4(sp)
     5cc:	4582                	lw	a1,0(sp)
     5ce:	46e1                	li	a3,24
     5d0:	02000613          	li	a2,32
     5d4:	cc1e                	sw	t2,24(sp)
     5d6:	ca3e                	sw	a5,20(sp)
     5d8:	c81a                	sw	t1,16(sp)
     5da:	9526                	add	a0,a0,s1
     5dc:	0ff57513          	zext.b	a0,a0
     5e0:	3b91                	jal	334 <OLED_ShowChar>
     5e2:	4342                	lw	t1,16(sp)
     5e4:	47d2                	lw	a5,20(sp)
     5e6:	43e2                	lw	t2,24(sp)
     5e8:	0305                	addi	t1,t1,1
     5ea:	0ff37313          	zext.b	t1,t1
     5ee:	42b1                	li	t0,12
     5f0:	fc641ae3          	bne	s0,t1,5c4 <OLED_ShowFloat+0xcc>
     5f4:	02540433          	mul	s0,s0,t0
     5f8:	9426                	add	s0,s0,s1
     5fa:	0ff47493          	zext.b	s1,s0
     5fe:	f40380e3          	beqz	t2,53e <OLED_ShowFloat+0x46>
     602:	b755                	j	5a6 <OLED_ShowFloat+0xae>
     604:	137d                	addi	t1,t1,-1
     606:	0ff37313          	zext.b	t1,t1
     60a:	871a                	mv	a4,t1
     60c:	4585                	li	a1,1
     60e:	0ff00693          	li	a3,255
     612:	4629                	li	a2,10
     614:	177d                	addi	a4,a4,-1
     616:	0ff77713          	zext.b	a4,a4
     61a:	02d71763          	bne	a4,a3,648 <OLED_ShowFloat+0x150>
     61e:	4522                	lw	a0,8(sp)
     620:	ca3e                	sw	a5,20(sp)
     622:	c81a                	sw	t1,16(sp)
     624:	3445                	jal	c4 <__hidden___udivsi3>
     626:	45a9                	li	a1,10
     628:	34e1                	jal	f0 <__umodsi3>
     62a:	4712                	lw	a4,4(sp)
     62c:	4582                	lw	a1,0(sp)
     62e:	03050613          	addi	a2,a0,48 # 80000030 <_eusrstack+0x5fffe830>
     632:	46e1                	li	a3,24
     634:	8522                	mv	a0,s0
     636:	0ff67613          	zext.b	a2,a2
     63a:	39ed                	jal	334 <OLED_ShowChar>
     63c:	0431                	addi	s0,s0,12
     63e:	47d2                	lw	a5,20(sp)
     640:	4342                	lw	t1,16(sp)
     642:	0ff47413          	zext.b	s0,s0
     646:	bdf5                	j	542 <OLED_ShowFloat+0x4a>
     648:	02c585b3          	mul	a1,a1,a2
     64c:	b7e1                	j	614 <OLED_ShowFloat+0x11c>

0000064e <OLED_Init>:
     64e:	a5bff2ef          	jal	t0,a8 <__riscv_save_0>
     652:	1151                	addi	sp,sp,-12
     654:	0c800513          	li	a0,200
     658:	3b4010ef          	jal	ra,1a0c <Delay_Ms>
     65c:	7d000513          	li	a0,2000
     660:	3ac010ef          	jal	ra,1a0c <Delay_Ms>
     664:	4585                	li	a1,1
     666:	02000513          	li	a0,32
     66a:	0f2010ef          	jal	ra,175c <RCC_PB2PeriphClockCmd>
     66e:	4585                	li	a1,1
     670:	4505                	li	a0,1
     672:	0ea010ef          	jal	ra,175c <RCC_PB2PeriphClockCmd>
     676:	08300537          	lui	a0,0x8300
     67a:	4585                	li	a1,1
     67c:	40050513          	addi	a0,a0,1024 # 8300400 <_data_lma+0x82fca18>
     680:	3e5000ef          	jal	ra,1264 <GPIO_PinRemapConfig>
     684:	40011437          	lui	s0,0x40011
     688:	4485                	li	s1,1
     68a:	47d1                	li	a5,20
     68c:	858a                	mv	a1,sp
     68e:	40040513          	addi	a0,s0,1024 # 40011400 <_eusrstack+0x2000fc00>
     692:	8064                	sh	s1,0(sp)
     694:	c43e                	sw	a5,8(sp)
     696:	c226                	sw	s1,4(sp)
     698:	34f000ef          	jal	ra,11e6 <GPIO_Init>
     69c:	4709                	li	a4,2
     69e:	47d1                	li	a5,20
     6a0:	858a                	mv	a1,sp
     6a2:	40040513          	addi	a0,s0,1024
     6a6:	8078                	sh	a4,0(sp)
     6a8:	c43e                	sw	a5,8(sp)
     6aa:	c226                	sw	s1,4(sp)
     6ac:	33b000ef          	jal	ra,11e6 <GPIO_Init>
     6b0:	40040513          	addi	a0,s0,1024
     6b4:	458d                	li	a1,3
     6b6:	3a7000ef          	jal	ra,125c <GPIO_SetBits>
     6ba:	4581                	li	a1,0
     6bc:	0ae00513          	li	a0,174
     6c0:	3ead                	jal	23a <OLED_WR_Byte>
     6c2:	4581                	li	a1,0
     6c4:	4509                	li	a0,2
     6c6:	3e95                	jal	23a <OLED_WR_Byte>
     6c8:	4581                	li	a1,0
     6ca:	4541                	li	a0,16
     6cc:	36bd                	jal	23a <OLED_WR_Byte>
     6ce:	4581                	li	a1,0
     6d0:	04000513          	li	a0,64
     6d4:	369d                	jal	23a <OLED_WR_Byte>
     6d6:	4581                	li	a1,0
     6d8:	0b000513          	li	a0,176
     6dc:	3eb9                	jal	23a <OLED_WR_Byte>
     6de:	4581                	li	a1,0
     6e0:	08100513          	li	a0,129
     6e4:	3e99                	jal	23a <OLED_WR_Byte>
     6e6:	4581                	li	a1,0
     6e8:	0cf00513          	li	a0,207
     6ec:	36b9                	jal	23a <OLED_WR_Byte>
     6ee:	4581                	li	a1,0
     6f0:	0a100513          	li	a0,161
     6f4:	3699                	jal	23a <OLED_WR_Byte>
     6f6:	4581                	li	a1,0
     6f8:	0a600513          	li	a0,166
     6fc:	3e3d                	jal	23a <OLED_WR_Byte>
     6fe:	4581                	li	a1,0
     700:	0a800513          	li	a0,168
     704:	3e1d                	jal	23a <OLED_WR_Byte>
     706:	4581                	li	a1,0
     708:	03f00513          	li	a0,63
     70c:	363d                	jal	23a <OLED_WR_Byte>
     70e:	4581                	li	a1,0
     710:	0ad00513          	li	a0,173
     714:	361d                	jal	23a <OLED_WR_Byte>
     716:	4581                	li	a1,0
     718:	08b00513          	li	a0,139
     71c:	3e39                	jal	23a <OLED_WR_Byte>
     71e:	4581                	li	a1,0
     720:	03300513          	li	a0,51
     724:	3e19                	jal	23a <OLED_WR_Byte>
     726:	4581                	li	a1,0
     728:	0c800513          	li	a0,200
     72c:	3639                	jal	23a <OLED_WR_Byte>
     72e:	4581                	li	a1,0
     730:	0d300513          	li	a0,211
     734:	3619                	jal	23a <OLED_WR_Byte>
     736:	4581                	li	a1,0
     738:	4501                	li	a0,0
     73a:	3601                	jal	23a <OLED_WR_Byte>
     73c:	4581                	li	a1,0
     73e:	0d500513          	li	a0,213
     742:	3ce5                	jal	23a <OLED_WR_Byte>
     744:	4581                	li	a1,0
     746:	08000513          	li	a0,128
     74a:	3cc5                	jal	23a <OLED_WR_Byte>
     74c:	4581                	li	a1,0
     74e:	0d900513          	li	a0,217
     752:	34e5                	jal	23a <OLED_WR_Byte>
     754:	4581                	li	a1,0
     756:	457d                	li	a0,31
     758:	34cd                	jal	23a <OLED_WR_Byte>
     75a:	4581                	li	a1,0
     75c:	0da00513          	li	a0,218
     760:	3ce9                	jal	23a <OLED_WR_Byte>
     762:	4581                	li	a1,0
     764:	4549                	li	a0,18
     766:	3cd1                	jal	23a <OLED_WR_Byte>
     768:	4581                	li	a1,0
     76a:	0db00513          	li	a0,219
     76e:	34f1                	jal	23a <OLED_WR_Byte>
     770:	4581                	li	a1,0
     772:	04000513          	li	a0,64
     776:	34d1                	jal	23a <OLED_WR_Byte>
     778:	3e99                	jal	2ce <OLED_Clear>
     77a:	4581                	li	a1,0
     77c:	0af00513          	li	a0,175
     780:	3c6d                	jal	23a <OLED_WR_Byte>
     782:	0131                	addi	sp,sp,12
     784:	92fff06f          	j	b2 <__riscv_restore_0>

00000788 <NMI_Handler>:
     788:	a001                	j	788 <NMI_Handler>

0000078a <HardFault_Handler>:
     78a:	beef07b7          	lui	a5,0xbeef0
     78e:	e000e737          	lui	a4,0xe000e
     792:	08078793          	addi	a5,a5,128 # beef0080 <_eusrstack+0x9eeee880>
     796:	c73c                	sw	a5,72(a4)
     798:	a001                	j	798 <HardFault_Handler+0xe>

0000079a <get_closest_temp>:
     79a:	90fff2ef          	jal	t0,a8 <__riscv_save_0>
     79e:	20000437          	lui	s0,0x20000
     7a2:	1131                	addi	sp,sp,-20
     7a4:	00040493          	mv	s1,s0
     7a8:	c02a                	sw	a0,0(sp)
     7aa:	85aa                	mv	a1,a0
     7ac:	4088                	lw	a0,0(s1)
     7ae:	12f010ef          	jal	ra,20dc <__gesf2>
     7b2:	06a04e63          	bgtz	a0,82e <get_closest_temp+0x94>
     7b6:	4582                	lw	a1,0(sp)
     7b8:	2304a503          	lw	a0,560(s1)
     7bc:	1b7010ef          	jal	ra,2172 <__lesf2>
     7c0:	06054763          	bltz	a0,82e <get_closest_temp+0x94>
     7c4:	6791                	lui	a5,0x4
     7c6:	00040713          	mv	a4,s0
     7ca:	80000437          	lui	s0,0x80000
     7ce:	8287a483          	lw	s1,-2008(a5) # 3828 <asc2_2412+0xd6c>
     7d2:	4681                	li	a3,0
     7d4:	4781                	li	a5,0
     7d6:	147d                	addi	s0,s0,-1 # 7fffffff <_eusrstack+0x5fffe7ff>
     7d8:	430c                	lw	a1,0(a4)
     7da:	4502                	lw	a0,0(sp)
     7dc:	c836                	sw	a3,16(sp)
     7de:	c63e                	sw	a5,12(sp)
     7e0:	c43a                	sw	a4,8(sp)
     7e2:	505010ef          	jal	ra,24e6 <__subsf3>
     7e6:	00a475b3          	and	a1,s0,a0
     7ea:	8526                	mv	a0,s1
     7ec:	c22e                	sw	a1,4(sp)
     7ee:	0ef010ef          	jal	ra,20dc <__gesf2>
     7f2:	4722                	lw	a4,8(sp)
     7f4:	47b2                	lw	a5,12(sp)
     7f6:	46c2                	lw	a3,16(sp)
     7f8:	08d00613          	li	a2,141
     7fc:	00a05563          	blez	a0,806 <get_closest_temp+0x6c>
     800:	4592                	lw	a1,4(sp)
     802:	86be                	mv	a3,a5
     804:	84ae                	mv	s1,a1
     806:	0785                	addi	a5,a5,1
     808:	0711                	addi	a4,a4,4 # e000e004 <_eusrstack+0xc000c804>
     80a:	fcc797e3          	bne	a5,a2,7d8 <get_closest_temp+0x3e>
     80e:	8536                	mv	a0,a3
     810:	0a8020ef          	jal	ra,28b8 <__floatsisf>
     814:	6791                	lui	a5,0x4
     816:	8307a583          	lw	a1,-2000(a5) # 3830 <asc2_2412+0xd74>
     81a:	1f1010ef          	jal	ra,220a <__mulsf3>
     81e:	6791                	lui	a5,0x4
     820:	8347a583          	lw	a1,-1996(a5) # 3834 <asc2_2412+0xd78>
     824:	216010ef          	jal	ra,1a3a <__addsf3>
     828:	0151                	addi	sp,sp,20
     82a:	889ff06f          	j	b2 <__riscv_restore_0>
     82e:	6791                	lui	a5,0x4
     830:	82c7a503          	lw	a0,-2004(a5) # 382c <asc2_2412+0xd70>
     834:	bfd5                	j	828 <get_closest_temp+0x8e>

00000836 <ADC_Function_Init>:
     836:	873ff2ef          	jal	t0,a8 <__riscv_save_0>
     83a:	fdc10113          	addi	sp,sp,-36
     83e:	4661                	li	a2,24
     840:	4581                	li	a1,0
     842:	0068                	addi	a0,sp,12
     844:	8f7ff0ef          	jal	ra,13a <memset>
     848:	4585                	li	a1,1
     84a:	4541                	li	a0,16
     84c:	c002                	sw	zero,0(sp)
     84e:	c202                	sw	zero,4(sp)
     850:	c402                	sw	zero,8(sp)
     852:	70b000ef          	jal	ra,175c <RCC_PB2PeriphClockCmd>
     856:	4585                	li	a1,1
     858:	20000513          	li	a0,512
     85c:	701000ef          	jal	ra,175c <RCC_PB2PeriphClockCmd>
     860:	6531                	lui	a0,0xc
     862:	6c7000ef          	jal	ra,1728 <RCC_ADCCLKConfig>
     866:	47c1                	li	a5,16
     868:	858a                	mv	a1,sp
     86a:	40011537          	lui	a0,0x40011
     86e:	40012437          	lui	s0,0x40012
     872:	807c                	sh	a5,0(sp)
     874:	c402                	sw	zero,8(sp)
     876:	171000ef          	jal	ra,11e6 <GPIO_Init>
     87a:	40040513          	addi	a0,s0,1024 # 40012400 <_eusrstack+0x20010c00>
     87e:	21e9                	jal	d48 <ADC_DeInit>
     880:	000207b7          	lui	a5,0x20
     884:	cc3e                	sw	a5,24(sp)
     886:	006c                	addi	a1,sp,12
     888:	4785                	li	a5,1
     88a:	40040513          	addi	a0,s0,1024
     88e:	02f10023          	sb	a5,32(sp)
     892:	c602                	sw	zero,12(sp)
     894:	c802                	sw	zero,16(sp)
     896:	ca02                	sw	zero,20(sp)
     898:	ce02                	sw	zero,28(sp)
     89a:	29e1                	jal	d72 <ADC_Init>
     89c:	469d                	li	a3,7
     89e:	4605                	li	a2,1
     8a0:	40040513          	addi	a0,s0,1024
     8a4:	4589                	li	a1,2
     8a6:	2b35                	jal	de2 <ADC_RegularChannelConfig>
     8a8:	40040513          	addi	a0,s0,1024
     8ac:	4585                	li	a1,1
     8ae:	23c1                	jal	e6e <ADC_ExternalTrigConvCmd>
     8b0:	40040513          	addi	a0,s0,1024
     8b4:	4585                	li	a1,1
     8b6:	2b29                	jal	dd0 <ADC_DMACmd>
     8b8:	40040513          	addi	a0,s0,1024
     8bc:	4585                	li	a1,1
     8be:	2309                	jal	dc0 <ADC_Cmd>
     8c0:	4581                	li	a1,0
     8c2:	40040513          	addi	a0,s0,1024
     8c6:	23c1                	jal	e86 <ADC_BufferCmd>
     8c8:	02410113          	addi	sp,sp,36
     8cc:	fe6ff06f          	j	b2 <__riscv_restore_0>

000008d0 <TIM1_PWM_In>:
     8d0:	fd8ff2ef          	jal	t0,a8 <__riscv_save_0>
     8d4:	fd410113          	addi	sp,sp,-44
     8d8:	c02a                	sw	a0,0(sp)
     8da:	6505                	lui	a0,0x1
     8dc:	842e                	mv	s0,a1
     8de:	81050513          	addi	a0,a0,-2032 # 810 <get_closest_temp+0x76>
     8e2:	4585                	li	a1,1
     8e4:	84b2                	mv	s1,a2
     8e6:	c802                	sw	zero,16(sp)
     8e8:	ca02                	sw	zero,20(sp)
     8ea:	cc02                	sw	zero,24(sp)
     8ec:	ce02                	sw	zero,28(sp)
     8ee:	d002                	sw	zero,32(sp)
     8f0:	d202                	sw	zero,36(sp)
     8f2:	d402                	sw	zero,40(sp)
     8f4:	c202                	sw	zero,4(sp)
     8f6:	c402                	sw	zero,8(sp)
     8f8:	00011623          	sh	zero,12(sp)
     8fc:	661000ef          	jal	ra,175c <RCC_PB2PeriphClockCmd>
     900:	4585                	li	a1,1
     902:	4505                	li	a0,1
     904:	659000ef          	jal	ra,175c <RCC_PB2PeriphClockCmd>
     908:	001a1537          	lui	a0,0x1a1
     90c:	4585                	li	a1,1
     90e:	80050513          	addi	a0,a0,-2048 # 1a0800 <_data_lma+0x19ce18>
     912:	153000ef          	jal	ra,1264 <GPIO_PinRemapConfig>
     916:	04000713          	li	a4,64
     91a:	80f8                	sh	a4,16(sp)
     91c:	4711                	li	a4,4
     91e:	cc3a                	sw	a4,24(sp)
     920:	080c                	addi	a1,sp,16
     922:	4705                	li	a4,1
     924:	40011537          	lui	a0,0x40011
     928:	ca3a                	sw	a4,20(sp)
     92a:	0bd000ef          	jal	ra,11e6 <GPIO_Init>
     92e:	4782                	lw	a5,0(sp)
     930:	8260                	sh	s0,4(sp)
     932:	40013437          	lui	s0,0x40013
     936:	004c                	addi	a1,sp,4
     938:	c0040513          	addi	a0,s0,-1024 # 40012c00 <_eusrstack+0x20011400>
     93c:	847c                	sh	a5,8(sp)
     93e:	00011523          	sh	zero,10(sp)
     942:	00011323          	sh	zero,6(sp)
     946:	653000ef          	jal	ra,1798 <TIM_TimeBaseInit>
     94a:	67c1                	lui	a5,0x10
     94c:	06078793          	addi	a5,a5,96 # 10060 <_data_lma+0xc678>
     950:	ce3e                	sw	a5,28(sp)
     952:	086c                	addi	a1,sp,28
     954:	4789                	li	a5,2
     956:	c0040513          	addi	a0,s0,-1024
     95a:	02f11223          	sh	a5,36(sp)
     95e:	02911123          	sh	s1,34(sp)
     962:	6a3000ef          	jal	ra,1804 <TIM_OC1Init>
     966:	c0040513          	addi	a0,s0,-1024
     96a:	4585                	li	a1,1
     96c:	797000ef          	jal	ra,1902 <TIM_CtrlPWMOutputs>
     970:	c0040513          	addi	a0,s0,-1024
     974:	45a1                	li	a1,8
     976:	7fb000ef          	jal	ra,1970 <TIM_OC1PreloadConfig>
     97a:	c0040513          	addi	a0,s0,-1024
     97e:	4585                	li	a1,1
     980:	799000ef          	jal	ra,1918 <TIM_ARRPreloadConfig>
     984:	4585                	li	a1,1
     986:	c0040513          	addi	a0,s0,-1024
     98a:	723000ef          	jal	ra,18ac <TIM_Cmd>
     98e:	02c10113          	addi	sp,sp,44
     992:	f20ff06f          	j	b2 <__riscv_restore_0>

00000996 <DMA_Tx_Init>:
     996:	f12ff2ef          	jal	t0,a8 <__riscv_save_0>
     99a:	fc410113          	addi	sp,sp,-60
     99e:	8432                	mv	s0,a2
     9a0:	c02a                	sw	a0,0(sp)
     9a2:	02c00613          	li	a2,44
     9a6:	c22e                	sw	a1,4(sp)
     9a8:	0808                	addi	a0,sp,16
     9aa:	4581                	li	a1,0
     9ac:	84b6                	mv	s1,a3
     9ae:	f8cff0ef          	jal	ra,13a <memset>
     9b2:	4585                	li	a1,1
     9b4:	4505                	li	a0,1
     9b6:	c402                	sw	zero,8(sp)
     9b8:	c602                	sw	zero,12(sp)
     9ba:	585000ef          	jal	ra,173e <RCC_HBPeriphClockCmd>
     9be:	4502                	lw	a0,0(sp)
     9c0:	29f9                	jal	e9e <DMA_DeInit>
     9c2:	08000793          	li	a5,128
     9c6:	d23e                	sw	a5,36(sp)
     9c8:	10000793          	li	a5,256
     9cc:	4712                	lw	a4,4(sp)
     9ce:	4502                	lw	a0,0(sp)
     9d0:	d43e                	sw	a5,40(sp)
     9d2:	40000793          	li	a5,1024
     9d6:	d63e                	sw	a5,44(sp)
     9d8:	02000793          	li	a5,32
     9dc:	080c                	addi	a1,sp,16
     9de:	d83e                	sw	a5,48(sp)
     9e0:	678d                	lui	a5,0x3
     9e2:	c83a                	sw	a4,16(sp)
     9e4:	ca22                	sw	s0,20(sp)
     9e6:	ce26                	sw	s1,28(sp)
     9e8:	da3e                	sw	a5,52(sp)
     9ea:	cc02                	sw	zero,24(sp)
     9ec:	d002                	sw	zero,32(sp)
     9ee:	dc02                	sw	zero,56(sp)
     9f0:	2381                	jal	f30 <DMA_Init>
     9f2:	11600793          	li	a5,278
     9f6:	847c                	sh	a5,8(sp)
     9f8:	0028                	addi	a0,sp,8
     9fa:	4785                	li	a5,1
     9fc:	c63e                	sw	a5,12(sp)
     9fe:	00010523          	sb	zero,10(sp)
     a02:	3f9000ef          	jal	ra,15fa <NVIC_Init>
     a06:	40020537          	lui	a0,0x40020
     a0a:	4605                	li	a2,1
     a0c:	4589                	li	a1,2
     a0e:	0521                	addi	a0,a0,8 # 40020008 <_eusrstack+0x2001e808>
     a10:	23b5                	jal	f7c <DMA_ITConfig>
     a12:	03c10113          	addi	sp,sp,60
     a16:	e9cff06f          	j	b2 <__riscv_restore_0>

00000a1a <OPA1_Init>:
     a1a:	e8eff2ef          	jal	t0,a8 <__riscv_save_0>
     a1e:	fa410113          	addi	sp,sp,-92
     a22:	05000613          	li	a2,80
     a26:	4581                	li	a1,0
     a28:	0068                	addi	a0,sp,12
     a2a:	c002                	sw	zero,0(sp)
     a2c:	c202                	sw	zero,4(sp)
     a2e:	c402                	sw	zero,8(sp)
     a30:	f0aff0ef          	jal	ra,13a <memset>
     a34:	4585                	li	a1,1
     a36:	4511                	li	a0,4
     a38:	525000ef          	jal	ra,175c <RCC_PB2PeriphClockCmd>
     a3c:	4585                	li	a1,1
     a3e:	02000513          	li	a0,32
     a42:	51b000ef          	jal	ra,175c <RCC_PB2PeriphClockCmd>
     a46:	400114b7          	lui	s1,0x40011
     a4a:	4411                	li	s0,4
     a4c:	4789                	li	a5,2
     a4e:	858a                	mv	a1,sp
     a50:	80048513          	addi	a0,s1,-2048 # 40010800 <_eusrstack+0x2000f000>
     a54:	807c                	sh	a5,0(sp)
     a56:	c422                	sw	s0,8(sp)
     a58:	78e000ef          	jal	ra,11e6 <GPIO_Init>
     a5c:	858a                	mv	a1,sp
     a5e:	80048513          	addi	a0,s1,-2048
     a62:	8060                	sh	s0,0(sp)
     a64:	c422                	sw	s0,8(sp)
     a66:	780000ef          	jal	ra,11e6 <GPIO_Init>
     a6a:	4785                	li	a5,1
     a6c:	0068                	addi	a0,sp,12
     a6e:	ccbe                	sw	a5,88(sp)
     a70:	dc02                	sw	zero,56(sp)
     a72:	de02                	sw	zero,60(sp)
     a74:	c082                	sw	zero,64(sp)
     a76:	401000ef          	jal	ra,1676 <OPA_Init>
     a7a:	4505                	li	a0,1
     a7c:	493000ef          	jal	ra,170e <OPA_Cmd>
     a80:	05c10113          	addi	sp,sp,92
     a84:	e2eff06f          	j	b2 <__riscv_restore_0>

00000a88 <main>:
     a88:	e20ff2ef          	jal	t0,a8 <__riscv_save_0>
     a8c:	22e9                	jal	c56 <SystemCoreClockUpdate>
     a8e:	721000ef          	jal	ra,19ae <Delay_Init>
     a92:	02000693          	li	a3,32
     a96:	4641                	li	a2,16
     a98:	4591                	li	a1,4
     a9a:	4505                	li	a0,1
     a9c:	6f0000ef          	jal	ra,118c <FLASH_UserOptionByteConfig>
     aa0:	367d                	jal	64e <OLED_Init>
     aa2:	1f400513          	li	a0,500
     aa6:	767000ef          	jal	ra,1a0c <Delay_Ms>
     aaa:	3b3000ef          	jal	ra,165c <OPA_Unlock>
     aae:	37b5                	jal	a1a <OPA1_Init>
     ab0:	3359                	jal	836 <ADC_Function_Init>
     ab2:	40020437          	lui	s0,0x40020
     ab6:	400125b7          	lui	a1,0x40012
     aba:	46a9                	li	a3,10
     abc:	c8818613          	addi	a2,gp,-888 # 200006d0 <AdcBuf>
     ac0:	44c58593          	addi	a1,a1,1100 # 4001244c <_eusrstack+0x20010c4c>
     ac4:	00840513          	addi	a0,s0,8 # 40020008 <_eusrstack+0x2001e808>
     ac8:	35f9                	jal	996 <DMA_Tx_Init>
     aca:	4585                	li	a1,1
     acc:	00840513          	addi	a0,s0,8
     ad0:	2961                	jal	f68 <DMA_Cmd>
     ad2:	6505                	lui	a0,0x1
     ad4:	96050613          	addi	a2,a0,-1696 # 960 <TIM1_PWM_In+0x90>
     ad8:	06400593          	li	a1,100
     adc:	2c050513          	addi	a0,a0,704
     ae0:	3bc5                	jal	8d0 <TIM1_PWM_In>
     ae2:	6791                	lui	a5,0x4
     ae4:	8387a483          	lw	s1,-1992(a5) # 3838 <asc2_2412+0xd7c>
     ae8:	6791                	lui	a5,0x4
     aea:	8187a583          	lw	a1,-2024(a5) # 3818 <asc2_2412+0xd5c>
     aee:	c841a503          	lw	a0,-892(gp) # 200006cc <Adc_Val>
     af2:	718010ef          	jal	ra,220a <__mulsf3>
     af6:	571010ef          	jal	ra,2866 <__fixunssfsi>
     afa:	862a                	mv	a2,a0
     afc:	4785                	li	a5,1
     afe:	4581                	li	a1,0
     b00:	4761                	li	a4,24
     b02:	4695                	li	a3,5
     b04:	4501                	li	a0,0
     b06:	94dff0ef          	jal	ra,452 <OLED_ShowNum>
     b0a:	c841a503          	lw	a0,-892(gp) # 200006cc <Adc_Val>
     b0e:	3171                	jal	79a <get_closest_temp>
     b10:	85a6                	mv	a1,s1
     b12:	842a                	mv	s0,a0
     b14:	c8a1a023          	sw	a0,-896(gp) # 200006c8 <Temp>
     b18:	65a010ef          	jal	ra,2172 <__lesf2>
     b1c:	00a05a63          	blez	a0,b30 <main+0xa8>
     b20:	6791                	lui	a5,0x4
     b22:	83c7a583          	lw	a1,-1988(a5) # 383c <asc2_2412+0xd80>
     b26:	8522                	mv	a0,s0
     b28:	5b4010ef          	jal	ra,20dc <__gesf2>
     b2c:	02054263          	bltz	a0,b50 <main+0xc8>
     b30:	6611                	lui	a2,0x4
     b32:	4705                	li	a4,1
     b34:	46e1                	li	a3,24
     b36:	82060613          	addi	a2,a2,-2016 # 3820 <asc2_2412+0xd64>
     b3a:	45e1                	li	a1,24
     b3c:	4501                	li	a0,0
     b3e:	8c9ff0ef          	jal	ra,406 <OLED_ShowString>
     b42:	f20ff0ef          	jal	ra,262 <OLED_Refresh>
     b46:	1f400513          	li	a0,500
     b4a:	6c3000ef          	jal	ra,1a0c <Delay_Ms>
     b4e:	bf69                	j	ae8 <main+0x60>
     b50:	4705                	li	a4,1
     b52:	4691                	li	a3,4
     b54:	8622                	mv	a2,s0
     b56:	45e1                	li	a1,24
     b58:	4501                	li	a0,0
     b5a:	99fff0ef          	jal	ra,4f8 <OLED_ShowFloat>
     b5e:	b7d5                	j	b42 <main+0xba>

00000b60 <DMA1_Channel1_IRQHandler>:
     b60:	4509                	li	a0,2
     b62:	2935                	jal	f9e <DMA_GetITStatus>
     b64:	c515                	beqz	a0,b90 <DMA1_Channel1_IRQHandler+0x30>
     b66:	c8818793          	addi	a5,gp,-888 # 200006d0 <AdcBuf>
     b6a:	01478713          	addi	a4,a5,20
     b6e:	4501                	li	a0,0
     b70:	2396                	lhu	a3,0(a5)
     b72:	0789                	addi	a5,a5,2
     b74:	9536                	add	a0,a0,a3
     b76:	fee79de3          	bne	a5,a4,b70 <DMA1_Channel1_IRQHandler+0x10>
     b7a:	613010ef          	jal	ra,298c <__floatunsisf>
     b7e:	6791                	lui	a5,0x4
     b80:	8187a583          	lw	a1,-2024(a5) # 3818 <asc2_2412+0xd5c>
     b84:	214010ef          	jal	ra,1d98 <__divsf3>
     b88:	c8a1a223          	sw	a0,-892(gp) # 200006cc <Adc_Val>
     b8c:	4509                	li	a0,2
     b8e:	2909                	jal	fa0 <DMA_ClearITPendingBit>
     b90:	30200073          	mret

00000b94 <SystemInit>:
     b94:	d14ff2ef          	jal	t0,a8 <__riscv_save_0>
     b98:	4689                	li	a3,2
     b9a:	400227b7          	lui	a5,0x40022
     b9e:	40021437          	lui	s0,0x40021
     ba2:	c394                	sw	a3,0(a5)
     ba4:	401c                	lw	a5,0(s0)
     ba6:	68ff0737          	lui	a4,0x68ff0
     baa:	74c1                	lui	s1,0xffff0
     bac:	0017e793          	ori	a5,a5,1
     bb0:	c01c                	sw	a5,0(s0)
     bb2:	405c                	lw	a5,4(s0)
     bb4:	14fd                	addi	s1,s1,-1 # fffeffff <_eusrstack+0xdffee7ff>
     bb6:	8ff9                	and	a5,a5,a4
     bb8:	c05c                	sw	a5,4(s0)
     bba:	401c                	lw	a5,0(s0)
     bbc:	fed70737          	lui	a4,0xfed70
     bc0:	176d                	addi	a4,a4,-5 # fed6fffb <_eusrstack+0xded6e7fb>
     bc2:	8ff9                	and	a5,a5,a4
     bc4:	00100737          	lui	a4,0x100
     bc8:	8fd9                	or	a5,a5,a4
     bca:	c01c                	sw	a5,0(s0)
     bcc:	401c                	lw	a5,0(s0)
     bce:	fffc0737          	lui	a4,0xfffc0
     bd2:	177d                	addi	a4,a4,-1 # fffbffff <_eusrstack+0xdffbe7ff>
     bd4:	8ff9                	and	a5,a5,a4
     bd6:	c01c                	sw	a5,0(s0)
     bd8:	405c                	lw	a5,4(s0)
     bda:	8fe5                	and	a5,a5,s1
     bdc:	c05c                	sw	a5,4(s0)
     bde:	009d07b7          	lui	a5,0x9d0
     be2:	c41c                	sw	a5,8(s0)
     be4:	4c1c                	lw	a5,24(s0)
     be6:	0207e793          	ori	a5,a5,32
     bea:	cc1c                	sw	a5,24(s0)
     bec:	400117b7          	lui	a5,0x40011
     bf0:	40078793          	addi	a5,a5,1024 # 40011400 <_eusrstack+0x2000fc00>
     bf4:	4398                	lw	a4,0(a5)
     bf6:	f0f77713          	andi	a4,a4,-241
     bfa:	c398                	sw	a4,0(a5)
     bfc:	4398                	lw	a4,0(a5)
     bfe:	08076713          	ori	a4,a4,128
     c02:	c398                	sw	a4,0(a5)
     c04:	cb94                	sw	a3,16(a5)
     c06:	2701                	jal	1306 <GPIO_IPD_Unused>
     c08:	405c                	lw	a5,4(s0)
     c0a:	01000737          	lui	a4,0x1000
     c0e:	020006b7          	lui	a3,0x2000
     c12:	c05c                	sw	a5,4(s0)
     c14:	405c                	lw	a5,4(s0)
     c16:	8fe5                	and	a5,a5,s1
     c18:	c05c                	sw	a5,4(s0)
     c1a:	405c                	lw	a5,4(s0)
     c1c:	c05c                	sw	a5,4(s0)
     c1e:	401c                	lw	a5,0(s0)
     c20:	8fd9                	or	a5,a5,a4
     c22:	c01c                	sw	a5,0(s0)
     c24:	400217b7          	lui	a5,0x40021
     c28:	4398                	lw	a4,0(a5)
     c2a:	8f75                	and	a4,a4,a3
     c2c:	df75                	beqz	a4,c28 <SystemInit+0x94>
     c2e:	43d8                	lw	a4,4(a5)
     c30:	400216b7          	lui	a3,0x40021
     c34:	9b71                	andi	a4,a4,-4
     c36:	c3d8                	sw	a4,4(a5)
     c38:	43d8                	lw	a4,4(a5)
     c3a:	00276713          	ori	a4,a4,2
     c3e:	c3d8                	sw	a4,4(a5)
     c40:	4721                	li	a4,8
     c42:	42dc                	lw	a5,4(a3)
     c44:	8bb1                	andi	a5,a5,12
     c46:	fee79ee3          	bne	a5,a4,c42 <SystemInit+0xae>
     c4a:	400227b7          	lui	a5,0x40022
     c4e:	4709                	li	a4,2
     c50:	c398                	sw	a4,0(a5)
     c52:	c60ff06f          	j	b2 <__riscv_restore_0>

00000c56 <SystemCoreClockUpdate>:
     c56:	40021737          	lui	a4,0x40021
     c5a:	435c                	lw	a5,4(a4)
     c5c:	46a1                	li	a3,8
     c5e:	8bb1                	andi	a5,a5,12
     c60:	04d79463          	bne	a5,a3,ca8 <SystemCoreClockUpdate+0x52>
     c64:	435c                	lw	a5,4(a4)
     c66:	02dc7537          	lui	a0,0x2dc7
     c6a:	c0050513          	addi	a0,a0,-1024 # 2dc6c00 <_data_lma+0x2dc3218>
     c6e:	400216b7          	lui	a3,0x40021
     c72:	42d8                	lw	a4,4(a3)
     c74:	200007b7          	lui	a5,0x20000
     c78:	23478793          	addi	a5,a5,564 # 20000234 <HBPrescTable>
     c7c:	8311                	srli	a4,a4,0x4
     c7e:	8b3d                	andi	a4,a4,15
     c80:	97ba                	add	a5,a5,a4
     c82:	239c                	lbu	a5,0(a5)
     c84:	42d8                	lw	a4,4(a3)
     c86:	0ff7f593          	zext.b	a1,a5
     c8a:	08077713          	andi	a4,a4,128
     c8e:	00f557b3          	srl	a5,a0,a5
     c92:	e305                	bnez	a4,cb2 <SystemCoreClockUpdate+0x5c>
     c94:	c14ff2ef          	jal	t0,a8 <__riscv_save_0>
     c98:	c2cff0ef          	jal	ra,c4 <__hidden___udivsi3>
     c9c:	20000737          	lui	a4,0x20000
     ca0:	24a72223          	sw	a0,580(a4) # 20000244 <SystemCoreClock>
     ca4:	c0eff06f          	j	b2 <__riscv_restore_0>
     ca8:	016e3537          	lui	a0,0x16e3
     cac:	60050513          	addi	a0,a0,1536 # 16e3600 <_data_lma+0x16dfc18>
     cb0:	bf7d                	j	c6e <SystemCoreClockUpdate+0x18>
     cb2:	20000737          	lui	a4,0x20000
     cb6:	24f72223          	sw	a5,580(a4) # 20000244 <SystemCoreClock>
     cba:	8082                	ret

00000cbc <ADC1_IRQHandler>:
     cbc:	a001                	j	cbc <ADC1_IRQHandler>

00000cbe <handle_reset>:
     cbe:	20000197          	auipc	gp,0x20000
     cc2:	d8a18193          	addi	gp,gp,-630 # 20000a48 <__global_pointer$>
     cc6:	20001117          	auipc	sp,0x20001
     cca:	b3a10113          	addi	sp,sp,-1222 # 20001800 <_eusrstack>
     cce:	00003517          	auipc	a0,0x3
     cd2:	d1a50513          	addi	a0,a0,-742 # 39e8 <_data_lma>
     cd6:	1ffff597          	auipc	a1,0x1ffff
     cda:	32a58593          	addi	a1,a1,810 # 20000000 <value_to_temp_table>
     cde:	1ffff617          	auipc	a2,0x1ffff
     ce2:	56a60613          	addi	a2,a2,1386 # 20000248 <OLED_GRAM>
     ce6:	00c5fa63          	bgeu	a1,a2,cfa <handle_reset+0x3c>
     cea:	00052283          	lw	t0,0(a0)
     cee:	0055a023          	sw	t0,0(a1)
     cf2:	0511                	addi	a0,a0,4
     cf4:	0591                	addi	a1,a1,4
     cf6:	fec5eae3          	bltu	a1,a2,cea <handle_reset+0x2c>
     cfa:	1ffff517          	auipc	a0,0x1ffff
     cfe:	54e50513          	addi	a0,a0,1358 # 20000248 <OLED_GRAM>
     d02:	ca418593          	addi	a1,gp,-860 # 200006ec <_ebss>
     d06:	00b57763          	bgeu	a0,a1,d14 <handle_reset+0x56>
     d0a:	00052023          	sw	zero,0(a0)
     d0e:	0511                	addi	a0,a0,4
     d10:	feb56de3          	bltu	a0,a1,d0a <handle_reset+0x4c>
     d14:	6289                	lui	t0,0x2
     d16:	88028293          	addi	t0,t0,-1920 # 1880 <TIM_OC1Init+0x7c>
     d1a:	30029073          	.4byte	0x30029073
     d1e:	428d                	li	t0,3
     d20:	80429073          	.4byte	0x80429073
     d24:	fffff297          	auipc	t0,0xfffff
     d28:	2dc28293          	addi	t0,t0,732 # 0 <_sinit>
     d2c:	0032e293          	ori	t0,t0,3
     d30:	30529073          	.4byte	0x30529073
     d34:	e61ff0ef          	jal	ra,b94 <SystemInit>
     d38:	00000297          	auipc	t0,0x0
     d3c:	d5028293          	addi	t0,t0,-688 # a88 <main>
     d40:	34129073          	.4byte	0x34129073
     d44:	30200073          	mret

00000d48 <ADC_DeInit>:
     d48:	400127b7          	lui	a5,0x40012
     d4c:	40078793          	addi	a5,a5,1024 # 40012400 <_eusrstack+0x20010c00>
     d50:	02f51063          	bne	a0,a5,d70 <ADC_DeInit+0x28>
     d54:	b54ff2ef          	jal	t0,a8 <__riscv_save_0>
     d58:	4585                	li	a1,1
     d5a:	20000513          	li	a0,512
     d5e:	21d000ef          	jal	ra,177a <RCC_PB2PeriphResetCmd>
     d62:	4581                	li	a1,0
     d64:	20000513          	li	a0,512
     d68:	213000ef          	jal	ra,177a <RCC_PB2PeriphResetCmd>
     d6c:	b46ff06f          	j	b2 <__riscv_restore_0>
     d70:	8082                	ret

00000d72 <ADC_Init>:
     d72:	4158                	lw	a4,4(a0)
     d74:	fff107b7          	lui	a5,0xfff10
     d78:	eff78793          	addi	a5,a5,-257 # fff0feff <_eusrstack+0xdff0e6ff>
     d7c:	8f7d                	and	a4,a4,a5
     d7e:	41dc                	lw	a5,4(a1)
     d80:	4194                	lw	a3,0(a1)
     d82:	07a2                	slli	a5,a5,0x8
     d84:	8fd5                	or	a5,a5,a3
     d86:	8fd9                	or	a5,a5,a4
     d88:	c15c                	sw	a5,4(a0)
     d8a:	4518                	lw	a4,8(a0)
     d8c:	fff1f7b7          	lui	a5,0xfff1f
     d90:	7fd78793          	addi	a5,a5,2045 # fff1f7fd <_eusrstack+0xdff1dffd>
     d94:	45d4                	lw	a3,12(a1)
     d96:	8f7d                	and	a4,a4,a5
     d98:	499c                	lw	a5,16(a1)
     d9a:	8fd5                	or	a5,a5,a3
     d9c:	4594                	lw	a3,8(a1)
     d9e:	0686                	slli	a3,a3,0x1
     da0:	8fd5                	or	a5,a5,a3
     da2:	8fd9                	or	a5,a5,a4
     da4:	c51c                	sw	a5,8(a0)
     da6:	5558                	lw	a4,44(a0)
     da8:	ff1007b7          	lui	a5,0xff100
     dac:	17fd                	addi	a5,a5,-1 # ff0fffff <_eusrstack+0xdf0fe7ff>
     dae:	8f7d                	and	a4,a4,a5
     db0:	29dc                	lbu	a5,20(a1)
     db2:	17fd                	addi	a5,a5,-1
     db4:	0ff7f793          	zext.b	a5,a5
     db8:	07d2                	slli	a5,a5,0x14
     dba:	8fd9                	or	a5,a5,a4
     dbc:	d55c                	sw	a5,44(a0)
     dbe:	8082                	ret

00000dc0 <ADC_Cmd>:
     dc0:	451c                	lw	a5,8(a0)
     dc2:	c589                	beqz	a1,dcc <ADC_Cmd+0xc>
     dc4:	0017e793          	ori	a5,a5,1
     dc8:	c51c                	sw	a5,8(a0)
     dca:	8082                	ret
     dcc:	9bf9                	andi	a5,a5,-2
     dce:	bfed                	j	dc8 <ADC_Cmd+0x8>

00000dd0 <ADC_DMACmd>:
     dd0:	451c                	lw	a5,8(a0)
     dd2:	c589                	beqz	a1,ddc <ADC_DMACmd+0xc>
     dd4:	1007e793          	ori	a5,a5,256
     dd8:	c51c                	sw	a5,8(a0)
     dda:	8082                	ret
     ddc:	eff7f793          	andi	a5,a5,-257
     de0:	bfe5                	j	dd8 <ADC_DMACmd+0x8>

00000de2 <ADC_RegularChannelConfig>:
     de2:	470d                	li	a4,3
     de4:	02e58733          	mul	a4,a1,a4
     de8:	01052303          	lw	t1,16(a0)
     dec:	479d                	li	a5,7
     dee:	00e797b3          	sll	a5,a5,a4
     df2:	fff7c793          	not	a5,a5
     df6:	0067f7b3          	and	a5,a5,t1
     dfa:	00e696b3          	sll	a3,a3,a4
     dfe:	8edd                	or	a3,a3,a5
     e00:	c914                	sw	a3,16(a0)
     e02:	4799                	li	a5,6
     e04:	02c7e263          	bltu	a5,a2,e28 <ADC_RegularChannelConfig+0x46>
     e08:	4795                	li	a5,5
     e0a:	167d                	addi	a2,a2,-1
     e0c:	02f60633          	mul	a2,a2,a5
     e10:	5958                	lw	a4,52(a0)
     e12:	47fd                	li	a5,31
     e14:	00c797b3          	sll	a5,a5,a2
     e18:	fff7c793          	not	a5,a5
     e1c:	8ff9                	and	a5,a5,a4
     e1e:	00c59633          	sll	a2,a1,a2
     e22:	8e5d                	or	a2,a2,a5
     e24:	d950                	sw	a2,52(a0)
     e26:	8082                	ret
     e28:	47b1                	li	a5,12
     e2a:	02c7e263          	bltu	a5,a2,e4e <ADC_RegularChannelConfig+0x6c>
     e2e:	4795                	li	a5,5
     e30:	1665                	addi	a2,a2,-7
     e32:	02f60633          	mul	a2,a2,a5
     e36:	5918                	lw	a4,48(a0)
     e38:	47fd                	li	a5,31
     e3a:	00c797b3          	sll	a5,a5,a2
     e3e:	fff7c793          	not	a5,a5
     e42:	8ff9                	and	a5,a5,a4
     e44:	00c59633          	sll	a2,a1,a2
     e48:	8e5d                	or	a2,a2,a5
     e4a:	d910                	sw	a2,48(a0)
     e4c:	8082                	ret
     e4e:	4795                	li	a5,5
     e50:	164d                	addi	a2,a2,-13
     e52:	02f60633          	mul	a2,a2,a5
     e56:	5558                	lw	a4,44(a0)
     e58:	47fd                	li	a5,31
     e5a:	00c797b3          	sll	a5,a5,a2
     e5e:	fff7c793          	not	a5,a5
     e62:	8ff9                	and	a5,a5,a4
     e64:	00c595b3          	sll	a1,a1,a2
     e68:	8ddd                	or	a1,a1,a5
     e6a:	d54c                	sw	a1,44(a0)
     e6c:	8082                	ret

00000e6e <ADC_ExternalTrigConvCmd>:
     e6e:	451c                	lw	a5,8(a0)
     e70:	c591                	beqz	a1,e7c <ADC_ExternalTrigConvCmd+0xe>
     e72:	00100737          	lui	a4,0x100
     e76:	8fd9                	or	a5,a5,a4
     e78:	c51c                	sw	a5,8(a0)
     e7a:	8082                	ret
     e7c:	fff00737          	lui	a4,0xfff00
     e80:	177d                	addi	a4,a4,-1 # ffefffff <_eusrstack+0xdfefe7ff>
     e82:	8ff9                	and	a5,a5,a4
     e84:	bfd5                	j	e78 <ADC_ExternalTrigConvCmd+0xa>

00000e86 <ADC_BufferCmd>:
     e86:	415c                	lw	a5,4(a0)
     e88:	c591                	beqz	a1,e94 <ADC_BufferCmd+0xe>
     e8a:	04000737          	lui	a4,0x4000
     e8e:	8fd9                	or	a5,a5,a4
     e90:	c15c                	sw	a5,4(a0)
     e92:	8082                	ret
     e94:	fc000737          	lui	a4,0xfc000
     e98:	177d                	addi	a4,a4,-1 # fbffffff <_eusrstack+0xdbffe7ff>
     e9a:	8ff9                	and	a5,a5,a4
     e9c:	bfd5                	j	e90 <ADC_BufferCmd+0xa>

00000e9e <DMA_DeInit>:
     e9e:	411c                	lw	a5,0(a0)
     ea0:	6741                	lui	a4,0x10
     ea2:	1779                	addi	a4,a4,-2 # fffe <_data_lma+0xc616>
     ea4:	8ff9                	and	a5,a5,a4
     ea6:	c11c                	sw	a5,0(a0)
     ea8:	00052023          	sw	zero,0(a0)
     eac:	00052223          	sw	zero,4(a0)
     eb0:	00052423          	sw	zero,8(a0)
     eb4:	400207b7          	lui	a5,0x40020
     eb8:	00052623          	sw	zero,12(a0)
     ebc:	00878713          	addi	a4,a5,8 # 40020008 <_eusrstack+0x2001e808>
     ec0:	00e51763          	bne	a0,a4,ece <DMA_DeInit+0x30>
     ec4:	43d8                	lw	a4,4(a5)
     ec6:	00f76713          	ori	a4,a4,15
     eca:	c3d8                	sw	a4,4(a5)
     ecc:	8082                	ret
     ece:	01c78713          	addi	a4,a5,28
     ed2:	00e51663          	bne	a0,a4,ede <DMA_DeInit+0x40>
     ed6:	43d8                	lw	a4,4(a5)
     ed8:	0f076713          	ori	a4,a4,240
     edc:	b7fd                	j	eca <DMA_DeInit+0x2c>
     ede:	03078713          	addi	a4,a5,48
     ee2:	00e51863          	bne	a0,a4,ef2 <DMA_DeInit+0x54>
     ee6:	43d8                	lw	a4,4(a5)
     ee8:	6685                	lui	a3,0x1
     eea:	f0068693          	addi	a3,a3,-256 # f00 <DMA_DeInit+0x62>
     eee:	8f55                	or	a4,a4,a3
     ef0:	bfe9                	j	eca <DMA_DeInit+0x2c>
     ef2:	04478713          	addi	a4,a5,68
     ef6:	00e51563          	bne	a0,a4,f00 <DMA_DeInit+0x62>
     efa:	43d8                	lw	a4,4(a5)
     efc:	66bd                	lui	a3,0xf
     efe:	bfc5                	j	eee <DMA_DeInit+0x50>
     f00:	05878713          	addi	a4,a5,88
     f04:	00e51663          	bne	a0,a4,f10 <DMA_DeInit+0x72>
     f08:	43d8                	lw	a4,4(a5)
     f0a:	000f06b7          	lui	a3,0xf0
     f0e:	b7c5                	j	eee <DMA_DeInit+0x50>
     f10:	06c78713          	addi	a4,a5,108
     f14:	00e51663          	bne	a0,a4,f20 <DMA_DeInit+0x82>
     f18:	43d8                	lw	a4,4(a5)
     f1a:	00f006b7          	lui	a3,0xf00
     f1e:	bfc1                	j	eee <DMA_DeInit+0x50>
     f20:	08078713          	addi	a4,a5,128
     f24:	fae514e3          	bne	a0,a4,ecc <DMA_DeInit+0x2e>
     f28:	43d8                	lw	a4,4(a5)
     f2a:	0f0006b7          	lui	a3,0xf000
     f2e:	b7c1                	j	eee <DMA_DeInit+0x50>

00000f30 <DMA_Init>:
     f30:	4118                	lw	a4,0(a0)
     f32:	77e1                	lui	a5,0xffff8
     f34:	07bd                	addi	a5,a5,15 # ffff800f <_eusrstack+0xdfff680f>
     f36:	5194                	lw	a3,32(a1)
     f38:	8f7d                	and	a4,a4,a5
     f3a:	459c                	lw	a5,8(a1)
     f3c:	8fd5                	or	a5,a5,a3
     f3e:	4994                	lw	a3,16(a1)
     f40:	8fd5                	or	a5,a5,a3
     f42:	49d4                	lw	a3,20(a1)
     f44:	8fd5                	or	a5,a5,a3
     f46:	4d94                	lw	a3,24(a1)
     f48:	8fd5                	or	a5,a5,a3
     f4a:	4dd4                	lw	a3,28(a1)
     f4c:	8fd5                	or	a5,a5,a3
     f4e:	51d4                	lw	a3,36(a1)
     f50:	8fd5                	or	a5,a5,a3
     f52:	5594                	lw	a3,40(a1)
     f54:	8fd5                	or	a5,a5,a3
     f56:	8fd9                	or	a5,a5,a4
     f58:	c11c                	sw	a5,0(a0)
     f5a:	45dc                	lw	a5,12(a1)
     f5c:	c15c                	sw	a5,4(a0)
     f5e:	419c                	lw	a5,0(a1)
     f60:	c51c                	sw	a5,8(a0)
     f62:	41dc                	lw	a5,4(a1)
     f64:	c55c                	sw	a5,12(a0)
     f66:	8082                	ret

00000f68 <DMA_Cmd>:
     f68:	411c                	lw	a5,0(a0)
     f6a:	c589                	beqz	a1,f74 <DMA_Cmd+0xc>
     f6c:	0017e793          	ori	a5,a5,1
     f70:	c11c                	sw	a5,0(a0)
     f72:	8082                	ret
     f74:	6741                	lui	a4,0x10
     f76:	1779                	addi	a4,a4,-2 # fffe <_data_lma+0xc616>
     f78:	8ff9                	and	a5,a5,a4
     f7a:	bfdd                	j	f70 <DMA_Cmd+0x8>

00000f7c <DMA_ITConfig>:
     f7c:	411c                	lw	a5,0(a0)
     f7e:	c601                	beqz	a2,f86 <DMA_ITConfig+0xa>
     f80:	8fcd                	or	a5,a5,a1
     f82:	c11c                	sw	a5,0(a0)
     f84:	8082                	ret
     f86:	fff5c593          	not	a1,a1
     f8a:	8dfd                	and	a1,a1,a5
     f8c:	c10c                	sw	a1,0(a0)
     f8e:	8082                	ret

00000f90 <DMA_GetFlagStatus>:
     f90:	400207b7          	lui	a5,0x40020
     f94:	439c                	lw	a5,0(a5)
     f96:	8d7d                	and	a0,a0,a5
     f98:	00a03533          	snez	a0,a0
     f9c:	8082                	ret

00000f9e <DMA_GetITStatus>:
     f9e:	bfcd                	j	f90 <DMA_GetFlagStatus>

00000fa0 <DMA_ClearITPendingBit>:
     fa0:	400207b7          	lui	a5,0x40020
     fa4:	c3c8                	sw	a0,4(a5)
     fa6:	8082                	ret

00000fa8 <FLASH_ProgramPage_Fast.part.0>:
     fa8:	400227b7          	lui	a5,0x40022
     fac:	4b98                	lw	a4,16(a5)
     fae:	7681                	lui	a3,0xfffe0
     fb0:	fdf68693          	addi	a3,a3,-33 # fffdffdf <_eusrstack+0xdffde7df>
     fb4:	8f75                	and	a4,a4,a3
     fb6:	cb98                	sw	a4,16(a5)
     fb8:	4b98                	lw	a4,16(a5)
     fba:	66c1                	lui	a3,0x10
     fbc:	8f55                	or	a4,a4,a3
     fbe:	cb98                	sw	a4,16(a5)
     fc0:	cbc8                	sw	a0,20(a5)
     fc2:	4b98                	lw	a4,16(a5)
     fc4:	04076713          	ori	a4,a4,64
     fc8:	cb98                	sw	a4,16(a5)
     fca:	47d8                	lw	a4,12(a5)
     fcc:	8b05                	andi	a4,a4,1
     fce:	ff75                	bnez	a4,fca <FLASH_ProgramPage_Fast.part.0+0x22>
     fd0:	4b98                	lw	a4,16(a5)
     fd2:	76c1                	lui	a3,0xffff0
     fd4:	16fd                	addi	a3,a3,-1 # fffeffff <_eusrstack+0xdffee7ff>
     fd6:	8f75                	and	a4,a4,a3
     fd8:	cb98                	sw	a4,16(a5)
     fda:	8082                	ret

00000fdc <FLASH_Unlock>:
     fdc:	456707b7          	lui	a5,0x45670
     fe0:	40022737          	lui	a4,0x40022
     fe4:	12378793          	addi	a5,a5,291 # 45670123 <_eusrstack+0x2566e923>
     fe8:	c35c                	sw	a5,4(a4)
     fea:	cdef97b7          	lui	a5,0xcdef9
     fee:	9ab78793          	addi	a5,a5,-1621 # cdef89ab <_eusrstack+0xadef71ab>
     ff2:	c35c                	sw	a5,4(a4)
     ff4:	8082                	ret

00000ff6 <FLASH_Lock>:
     ff6:	40022737          	lui	a4,0x40022
     ffa:	4b1c                	lw	a5,16(a4)
     ffc:	0807e793          	ori	a5,a5,128
    1000:	cb1c                	sw	a5,16(a4)
    1002:	8082                	ret

00001004 <FLASH_GetBank1Status>:
    1004:	400227b7          	lui	a5,0x40022
    1008:	47c8                	lw	a0,12(a5)
    100a:	8905                	andi	a0,a0,1
    100c:	e511                	bnez	a0,1018 <FLASH_GetBank1Status+0x14>
    100e:	47c8                	lw	a0,12(a5)
    1010:	8941                	andi	a0,a0,16
    1012:	00153513          	seqz	a0,a0
    1016:	050d                	addi	a0,a0,3
    1018:	8082                	ret

0000101a <FLASH_WaitForLastOperation>:
    101a:	88eff2ef          	jal	t0,a8 <__riscv_save_0>
    101e:	842a                	mv	s0,a0
    1020:	37d5                	jal	1004 <FLASH_GetBank1Status>
    1022:	4785                	li	a5,1
    1024:	00f51863          	bne	a0,a5,1034 <FLASH_WaitForLastOperation+0x1a>
    1028:	e019                	bnez	s0,102e <FLASH_WaitForLastOperation+0x14>
    102a:	4515                	li	a0,5
    102c:	a029                	j	1036 <FLASH_WaitForLastOperation+0x1c>
    102e:	3fd9                	jal	1004 <FLASH_GetBank1Status>
    1030:	147d                	addi	s0,s0,-1 # 40020fff <_eusrstack+0x2001f7ff>
    1032:	bfc5                	j	1022 <FLASH_WaitForLastOperation+0x8>
    1034:	d87d                	beqz	s0,102a <FLASH_WaitForLastOperation+0x10>
    1036:	87cff06f          	j	b2 <__riscv_restore_0>

0000103a <FLASH_EraseOptionBytes>:
    103a:	86eff2ef          	jal	t0,a8 <__riscv_save_0>
    103e:	1171                	addi	sp,sp,-4
    1040:	000b0537          	lui	a0,0xb0
    1044:	3fd9                	jal	101a <FLASH_WaitForLastOperation>
    1046:	4791                	li	a5,4
    1048:	04f51763          	bne	a0,a5,1096 <FLASH_EraseOptionBytes+0x5c>
    104c:	3f41                	jal	fdc <FLASH_Unlock>
    104e:	456707b7          	lui	a5,0x45670
    1052:	40022437          	lui	s0,0x40022
    1056:	12378793          	addi	a5,a5,291 # 45670123 <_eusrstack+0x2566e923>
    105a:	c41c                	sw	a5,8(s0)
    105c:	cdef97b7          	lui	a5,0xcdef9
    1060:	9ab78793          	addi	a5,a5,-1621 # cdef89ab <_eusrstack+0xadef71ab>
    1064:	c41c                	sw	a5,8(s0)
    1066:	481c                	lw	a5,16(s0)
    1068:	7701                	lui	a4,0xfffe0
    106a:	fdf70713          	addi	a4,a4,-33 # fffdffdf <_eusrstack+0xdffde7df>
    106e:	8ff9                	and	a5,a5,a4
    1070:	c81c                	sw	a5,16(s0)
    1072:	481c                	lw	a5,16(s0)
    1074:	000b0537          	lui	a0,0xb0
    1078:	0207e793          	ori	a5,a5,32
    107c:	c81c                	sw	a5,16(s0)
    107e:	481c                	lw	a5,16(s0)
    1080:	0407e793          	ori	a5,a5,64
    1084:	c81c                	sw	a5,16(s0)
    1086:	3f51                	jal	101a <FLASH_WaitForLastOperation>
    1088:	481c                	lw	a5,16(s0)
    108a:	c02a                	sw	a0,0(sp)
    108c:	fdf7f793          	andi	a5,a5,-33
    1090:	c81c                	sw	a5,16(s0)
    1092:	3795                	jal	ff6 <FLASH_Lock>
    1094:	4502                	lw	a0,0(sp)
    1096:	0111                	addi	sp,sp,4
    1098:	81aff06f          	j	b2 <__riscv_restore_0>

0000109c <FLASH_Unlock_Fast>:
    109c:	456706b7          	lui	a3,0x45670
    10a0:	400227b7          	lui	a5,0x40022
    10a4:	12368693          	addi	a3,a3,291 # 45670123 <_eusrstack+0x2566e923>
    10a8:	cdef9737          	lui	a4,0xcdef9
    10ac:	c3d4                	sw	a3,4(a5)
    10ae:	9ab70713          	addi	a4,a4,-1621 # cdef89ab <_eusrstack+0xadef71ab>
    10b2:	c3d8                	sw	a4,4(a5)
    10b4:	d3d4                	sw	a3,36(a5)
    10b6:	d3d8                	sw	a4,36(a5)
    10b8:	8082                	ret

000010ba <FLASH_Lock_Fast>:
    10ba:	40022737          	lui	a4,0x40022
    10be:	4b1c                	lw	a5,16(a4)
    10c0:	66a1                	lui	a3,0x8
    10c2:	8fd5                	or	a5,a5,a3
    10c4:	cb1c                	sw	a5,16(a4)
    10c6:	8082                	ret

000010c8 <FLASH_BufReset>:
    10c8:	400227b7          	lui	a5,0x40022
    10cc:	4b98                	lw	a4,16(a5)
    10ce:	7681                	lui	a3,0xfffe0
    10d0:	fdf68693          	addi	a3,a3,-33 # fffdffdf <_eusrstack+0xdffde7df>
    10d4:	8f75                	and	a4,a4,a3
    10d6:	cb98                	sw	a4,16(a5)
    10d8:	4b98                	lw	a4,16(a5)
    10da:	66c1                	lui	a3,0x10
    10dc:	8f55                	or	a4,a4,a3
    10de:	cb98                	sw	a4,16(a5)
    10e0:	4b98                	lw	a4,16(a5)
    10e2:	000806b7          	lui	a3,0x80
    10e6:	8f55                	or	a4,a4,a3
    10e8:	cb98                	sw	a4,16(a5)
    10ea:	47d8                	lw	a4,12(a5)
    10ec:	8b05                	andi	a4,a4,1
    10ee:	ff75                	bnez	a4,10ea <FLASH_BufReset+0x22>
    10f0:	4b98                	lw	a4,16(a5)
    10f2:	76c1                	lui	a3,0xffff0
    10f4:	16fd                	addi	a3,a3,-1 # fffeffff <_eusrstack+0xdffee7ff>
    10f6:	8f75                	and	a4,a4,a3
    10f8:	cb98                	sw	a4,16(a5)
    10fa:	8082                	ret

000010fc <FLASH_BufLoad>:
    10fc:	f80007b7          	lui	a5,0xf8000
    1100:	97aa                	add	a5,a5,a0
    1102:	6721                	lui	a4,0x8
    1104:	00e7eb63          	bltu	a5,a4,111a <FLASH_BufLoad+0x1e>
    1108:	e00017b7          	lui	a5,0xe0001
    110c:	80078793          	addi	a5,a5,-2048 # e0000800 <_eusrstack+0xbffff000>
    1110:	97aa                	add	a5,a5,a0
    1112:	0ff00713          	li	a4,255
    1116:	02f76c63          	bltu	a4,a5,114e <FLASH_BufLoad+0x52>
    111a:	400227b7          	lui	a5,0x40022
    111e:	4b98                	lw	a4,16(a5)
    1120:	7681                	lui	a3,0xfffe0
    1122:	fdf68693          	addi	a3,a3,-33 # fffdffdf <_eusrstack+0xdffde7df>
    1126:	8f75                	and	a4,a4,a3
    1128:	cb98                	sw	a4,16(a5)
    112a:	4b98                	lw	a4,16(a5)
    112c:	66c1                	lui	a3,0x10
    112e:	8f55                	or	a4,a4,a3
    1130:	cb98                	sw	a4,16(a5)
    1132:	c10c                	sw	a1,0(a0)
    1134:	4b98                	lw	a4,16(a5)
    1136:	000406b7          	lui	a3,0x40
    113a:	8f55                	or	a4,a4,a3
    113c:	cb98                	sw	a4,16(a5)
    113e:	47d8                	lw	a4,12(a5)
    1140:	8b05                	andi	a4,a4,1
    1142:	ff75                	bnez	a4,113e <FLASH_BufLoad+0x42>
    1144:	4b98                	lw	a4,16(a5)
    1146:	76c1                	lui	a3,0xffff0
    1148:	16fd                	addi	a3,a3,-1 # fffeffff <_eusrstack+0xdffee7ff>
    114a:	8f75                	and	a4,a4,a3
    114c:	cb98                	sw	a4,16(a5)
    114e:	8082                	ret

00001150 <FLASH_OptionBytePR>:
    1150:	f59fe2ef          	jal	t0,a8 <__riscv_save_0>
    1154:	84aa                	mv	s1,a0
    1156:	35d5                	jal	103a <FLASH_EraseOptionBytes>
    1158:	3791                	jal	109c <FLASH_Unlock_Fast>
    115a:	37bd                	jal	10c8 <FLASH_BufReset>
    115c:	200007b7          	lui	a5,0x20000
    1160:	4401                	li	s0,0
    1162:	80078793          	addi	a5,a5,-2048 # 1ffff800 <_data_lma+0x1fffbe18>
    1166:	00848733          	add	a4,s1,s0
    116a:	430c                	lw	a1,0(a4)
    116c:	00f40533          	add	a0,s0,a5
    1170:	0411                	addi	s0,s0,4 # 40022004 <_eusrstack+0x20020804>
    1172:	3769                	jal	10fc <FLASH_BufLoad>
    1174:	200007b7          	lui	a5,0x20000
    1178:	4741                	li	a4,16
    117a:	80078793          	addi	a5,a5,-2048 # 1ffff800 <_data_lma+0x1fffbe18>
    117e:	fee414e3          	bne	s0,a4,1166 <FLASH_OptionBytePR+0x16>
    1182:	853e                	mv	a0,a5
    1184:	3515                	jal	fa8 <FLASH_ProgramPage_Fast.part.0>
    1186:	3f15                	jal	10ba <FLASH_Lock_Fast>
    1188:	f2bfe06f          	j	b2 <__riscv_restore_0>

0000118c <FLASH_UserOptionByteConfig>:
    118c:	400227b7          	lui	a5,0x40022
    1190:	4fdc                	lw	a5,28(a5)
    1192:	8b89                	andi	a5,a5,2
    1194:	e7b9                	bnez	a5,11e2 <FLASH_UserOptionByteConfig+0x56>
    1196:	f13fe2ef          	jal	t0,a8 <__riscv_save_0>
    119a:	20000737          	lui	a4,0x20000
    119e:	00a6e7b3          	or	a5,a3,a0
    11a2:	80472683          	lw	a3,-2044(a4) # 1ffff804 <_data_lma+0x1fffbe1c>
    11a6:	1141                	addi	sp,sp,-16
    11a8:	8fcd                	or	a5,a5,a1
    11aa:	c236                	sw	a3,4(sp)
    11ac:	80872683          	lw	a3,-2040(a4)
    11b0:	8fd1                	or	a5,a5,a2
    11b2:	fc27e793          	ori	a5,a5,-62
    11b6:	c436                	sw	a3,8(sp)
    11b8:	80c72703          	lw	a4,-2036(a4)
    11bc:	0ff7f793          	zext.b	a5,a5
    11c0:	6699                	lui	a3,0x6
    11c2:	c63a                	sw	a4,12(sp)
    11c4:	aa568693          	addi	a3,a3,-1371 # 5aa5 <_data_lma+0x20bd>
    11c8:	fff7c713          	not	a4,a5
    11cc:	07c2                	slli	a5,a5,0x10
    11ce:	0762                	slli	a4,a4,0x18
    11d0:	97b6                	add	a5,a5,a3
    11d2:	97ba                	add	a5,a5,a4
    11d4:	850a                	mv	a0,sp
    11d6:	c03e                	sw	a5,0(sp)
    11d8:	3fa5                	jal	1150 <FLASH_OptionBytePR>
    11da:	4511                	li	a0,4
    11dc:	0141                	addi	sp,sp,16
    11de:	ed5fe06f          	j	b2 <__riscv_restore_0>
    11e2:	4519                	li	a0,6
    11e4:	8082                	ret

000011e6 <GPIO_Init>:
    11e6:	4594                	lw	a3,8(a1)
    11e8:	0106f793          	andi	a5,a3,16
    11ec:	00f6f313          	andi	t1,a3,15
    11f0:	c781                	beqz	a5,11f8 <GPIO_Init+0x12>
    11f2:	41dc                	lw	a5,4(a1)
    11f4:	00f36333          	or	t1,t1,a5
    11f8:	0005d283          	lhu	t0,0(a1)
    11fc:	0ff2f793          	zext.b	a5,t0
    1200:	cfa9                	beqz	a5,125a <GPIO_Init+0x74>
    1202:	410c                	lw	a1,0(a0)
    1204:	1161                	addi	sp,sp,-8
    1206:	c222                	sw	s0,4(sp)
    1208:	c026                	sw	s1,0(sp)
    120a:	4781                	li	a5,0
    120c:	02800393          	li	t2,40
    1210:	443d                	li	s0,15
    1212:	04800493          	li	s1,72
    1216:	4705                	li	a4,1
    1218:	00f71733          	sll	a4,a4,a5
    121c:	00e2f633          	and	a2,t0,a4
    1220:	02c71063          	bne	a4,a2,1240 <GPIO_Init+0x5a>
    1224:	02769763          	bne	a3,t2,1252 <GPIO_Init+0x6c>
    1228:	c958                	sw	a4,20(a0)
    122a:	00279613          	slli	a2,a5,0x2
    122e:	00c41733          	sll	a4,s0,a2
    1232:	fff74713          	not	a4,a4
    1236:	8f6d                	and	a4,a4,a1
    1238:	00c31633          	sll	a2,t1,a2
    123c:	00e665b3          	or	a1,a2,a4
    1240:	0785                	addi	a5,a5,1 # 40022001 <_eusrstack+0x20020801>
    1242:	4721                	li	a4,8
    1244:	fce799e3          	bne	a5,a4,1216 <GPIO_Init+0x30>
    1248:	4412                	lw	s0,4(sp)
    124a:	c10c                	sw	a1,0(a0)
    124c:	4482                	lw	s1,0(sp)
    124e:	0121                	addi	sp,sp,8
    1250:	8082                	ret
    1252:	fc969ce3          	bne	a3,s1,122a <GPIO_Init+0x44>
    1256:	c918                	sw	a4,16(a0)
    1258:	bfc9                	j	122a <GPIO_Init+0x44>
    125a:	8082                	ret

0000125c <GPIO_SetBits>:
    125c:	c90c                	sw	a1,16(a0)
    125e:	8082                	ret

00001260 <GPIO_ResetBits>:
    1260:	c94c                	sw	a1,20(a0)
    1262:	8082                	ret

00001264 <GPIO_PinRemapConfig>:
    1264:	40010337          	lui	t1,0x40010
    1268:	080007b7          	lui	a5,0x8000
    126c:	00c32683          	lw	a3,12(t1) # 4001000c <_eusrstack+0x2000e80c>
    1270:	01055613          	srli	a2,a0,0x10
    1274:	01051713          	slli	a4,a0,0x10
    1278:	8fe9                	and	a5,a5,a0
    127a:	8a3d                	andi	a2,a2,15
    127c:	8341                	srli	a4,a4,0x10
    127e:	c7bd                	beqz	a5,12ec <GPIO_PinRemapConfig+0x88>
    1280:	003007b7          	lui	a5,0x300
    1284:	00f572b3          	and	t0,a0,a5
    1288:	02f29463          	bne	t0,a5,12b0 <GPIO_PinRemapConfig+0x4c>
    128c:	f9000637          	lui	a2,0xf9000
    1290:	167d                	addi	a2,a2,-1 # f8ffffff <_eusrstack+0xd8ffe7ff>
    1292:	00c6f7b3          	and	a5,a3,a2
    1296:	00c32683          	lw	a3,12(t1)
    129a:	8ef1                	and	a3,a3,a2
    129c:	00d32623          	sw	a3,12(t1)
    12a0:	c595                	beqz	a1,12cc <GPIO_PinRemapConfig+0x68>
    12a2:	8145                	srli	a0,a0,0x11
    12a4:	07057513          	andi	a0,a0,112
    12a8:	00a71733          	sll	a4,a4,a0
    12ac:	8fd9                	or	a5,a5,a4
    12ae:	a839                	j	12cc <GPIO_PinRemapConfig+0x68>
    12b0:	004007b7          	lui	a5,0x400
    12b4:	8fe9                	and	a5,a5,a0
    12b6:	cf99                	beqz	a5,12d4 <GPIO_PinRemapConfig+0x70>
    12b8:	479d                	li	a5,7
    12ba:	00c797b3          	sll	a5,a5,a2
    12be:	fff7c793          	not	a5,a5
    12c2:	8ff5                	and	a5,a5,a3
    12c4:	c581                	beqz	a1,12cc <GPIO_PinRemapConfig+0x68>
    12c6:	00c71633          	sll	a2,a4,a2
    12ca:	8fd1                	or	a5,a5,a2
    12cc:	40010737          	lui	a4,0x40010
    12d0:	c75c                	sw	a5,12(a4)
    12d2:	8082                	ret
    12d4:	002007b7          	lui	a5,0x200
    12d8:	00f29363          	bne	t0,a5,12de <GPIO_PinRemapConfig+0x7a>
    12dc:	0641                	addi	a2,a2,16
    12de:	479d                	li	a5,7
    12e0:	00c797b3          	sll	a5,a5,a2
    12e4:	fff7c793          	not	a5,a5
    12e8:	8ff5                	and	a5,a5,a3
    12ea:	bf5d                	j	12a0 <GPIO_PinRemapConfig+0x3c>
    12ec:	001007b7          	lui	a5,0x100
    12f0:	8fe9                	and	a5,a5,a0
    12f2:	c399                	beqz	a5,12f8 <GPIO_PinRemapConfig+0x94>
    12f4:	47bd                	li	a5,15
    12f6:	b7ed                	j	12e0 <GPIO_PinRemapConfig+0x7c>
    12f8:	01155793          	srli	a5,a0,0x11
    12fc:	0707f793          	andi	a5,a5,112
    1300:	00f717b3          	sll	a5,a4,a5
    1304:	b7c5                	j	12e4 <GPIO_PinRemapConfig+0x80>

00001306 <GPIO_IPD_Unused>:
    1306:	da3fe2ef          	jal	t0,a8 <__riscv_save_0>
    130a:	1151                	addi	sp,sp,-12
    130c:	4585                	li	a1,1
    130e:	03c00513          	li	a0,60
    1312:	c002                	sw	zero,0(sp)
    1314:	c202                	sw	zero,4(sp)
    1316:	c402                	sw	zero,8(sp)
    1318:	2191                	jal	175c <RCC_PB2PeriphClockCmd>
    131a:	1ffff7b7          	lui	a5,0x1ffff
    131e:	7047a703          	lw	a4,1796(a5) # 1ffff704 <_data_lma+0x1fffbd1c>
    1322:	005206b7          	lui	a3,0x520
    1326:	60068693          	addi	a3,a3,1536 # 520600 <_data_lma+0x51cc18>
    132a:	f0f77793          	andi	a5,a4,-241
    132e:	0ad78663          	beq	a5,a3,13da <GPIO_IPD_Unused+0xd4>
    1332:	0cf6e263          	bltu	a3,a5,13f6 <GPIO_IPD_Unused+0xf0>
    1336:	002406b7          	lui	a3,0x240
    133a:	60068693          	addi	a3,a3,1536 # 240600 <_data_lma+0x23cc18>
    133e:	20d78363          	beq	a5,a3,1544 <GPIO_IPD_Unused+0x23e>
    1342:	04f6e063          	bltu	a3,a5,1382 <GPIO_IPD_Unused+0x7c>
    1346:	002206b7          	lui	a3,0x220
    134a:	60068693          	addi	a3,a3,1536 # 220600 <_data_lma+0x21cc18>
    134e:	26d78763          	beq	a5,a3,15bc <GPIO_IPD_Unused+0x2b6>
    1352:	00f6ef63          	bltu	a3,a5,1370 <GPIO_IPD_Unused+0x6a>
    1356:	77c1                	lui	a5,0xffff0
    1358:	f0f78793          	addi	a5,a5,-241 # fffeff0f <_eusrstack+0xdffee70f>
    135c:	8ff9                	and	a5,a5,a4
    135e:	00200737          	lui	a4,0x200
    1362:	60070713          	addi	a4,a4,1536 # 200600 <_data_lma+0x1fcc18>
    1366:	00e79b63          	bne	a5,a4,137c <GPIO_IPD_Unused+0x76>
    136a:	0f900793          	li	a5,249
    136e:	a835                	j	13aa <GPIO_IPD_Unused+0xa4>
    1370:	00230737          	lui	a4,0x230
    1374:	60070713          	addi	a4,a4,1536 # 230600 <_data_lma+0x22cc18>
    1378:	20e78a63          	beq	a5,a4,158c <GPIO_IPD_Unused+0x286>
    137c:	0131                	addi	sp,sp,12
    137e:	d35fe06f          	j	b2 <__riscv_restore_0>
    1382:	005006b7          	lui	a3,0x500
    1386:	60068693          	addi	a3,a3,1536 # 500600 <_data_lma+0x4fcc18>
    138a:	1ad78663          	beq	a5,a3,1536 <GPIO_IPD_Unused+0x230>
    138e:	04f6e063          	bltu	a3,a5,13ce <GPIO_IPD_Unused+0xc8>
    1392:	77c1                	lui	a5,0xffff0
    1394:	f0f78793          	addi	a5,a5,-241 # fffeff0f <_eusrstack+0xdffee70f>
    1398:	8f7d                	and	a4,a4,a5
    139a:	004007b7          	lui	a5,0x400
    139e:	60078793          	addi	a5,a5,1536 # 400600 <_data_lma+0x3fcc18>
    13a2:	fce79de3          	bne	a5,a4,137c <GPIO_IPD_Unused+0x76>
    13a6:	0e900793          	li	a5,233
    13aa:	40011437          	lui	s0,0x40011
    13ae:	807c                	sh	a5,0(sp)
    13b0:	858a                	mv	a1,sp
    13b2:	02800793          	li	a5,40
    13b6:	80040513          	addi	a0,s0,-2048 # 40010800 <_eusrstack+0x2000f000>
    13ba:	c43e                	sw	a5,8(sp)
    13bc:	352d                	jal	11e6 <GPIO_Init>
    13be:	07f00793          	li	a5,127
    13c2:	807c                	sh	a5,0(sp)
    13c4:	858a                	mv	a1,sp
    13c6:	c0040513          	addi	a0,s0,-1024
    13ca:	3d31                	jal	11e6 <GPIO_Init>
    13cc:	bf45                	j	137c <GPIO_IPD_Unused+0x76>
    13ce:	00510737          	lui	a4,0x510
    13d2:	60070713          	addi	a4,a4,1536 # 510600 <_data_lma+0x50cc18>
    13d6:	fae793e3          	bne	a5,a4,137c <GPIO_IPD_Unused+0x76>
    13da:	06900793          	li	a5,105
    13de:	40011437          	lui	s0,0x40011
    13e2:	807c                	sh	a5,0(sp)
    13e4:	858a                	mv	a1,sp
    13e6:	02800793          	li	a5,40
    13ea:	80040513          	addi	a0,s0,-2048 # 40010800 <_eusrstack+0x2000f000>
    13ee:	c43e                	sw	a5,8(sp)
    13f0:	3bdd                	jal	11e6 <GPIO_Init>
    13f2:	47ad                	li	a5,11
    13f4:	b7f9                	j	13c2 <GPIO_IPD_Unused+0xbc>
    13f6:	00640737          	lui	a4,0x640
    13fa:	60070713          	addi	a4,a4,1536 # 640600 <_data_lma+0x63cc18>
    13fe:	f6e786e3          	beq	a5,a4,136a <GPIO_IPD_Unused+0x64>
    1402:	06f76163          	bltu	a4,a5,1464 <GPIO_IPD_Unused+0x15e>
    1406:	00620737          	lui	a4,0x620
    140a:	60070713          	addi	a4,a4,1536 # 620600 <_data_lma+0x61cc18>
    140e:	f8e78ce3          	beq	a5,a4,13a6 <GPIO_IPD_Unused+0xa0>
    1412:	04f76463          	bltu	a4,a5,145a <GPIO_IPD_Unused+0x154>
    1416:	00530737          	lui	a4,0x530
    141a:	60070713          	addi	a4,a4,1536 # 530600 <_data_lma+0x52cc18>
    141e:	0ce78d63          	beq	a5,a4,14f8 <GPIO_IPD_Unused+0x1f2>
    1422:	00610737          	lui	a4,0x610
    1426:	60070713          	addi	a4,a4,1536 # 610600 <_data_lma+0x60cc18>
    142a:	f4e799e3          	bne	a5,a4,137c <GPIO_IPD_Unused+0x76>
    142e:	08000793          	li	a5,128
    1432:	40011437          	lui	s0,0x40011
    1436:	807c                	sh	a5,0(sp)
    1438:	858a                	mv	a1,sp
    143a:	02800793          	li	a5,40
    143e:	80040513          	addi	a0,s0,-2048 # 40010800 <_eusrstack+0x2000f000>
    1442:	c43e                	sw	a5,8(sp)
    1444:	334d                	jal	11e6 <GPIO_Init>
    1446:	07400793          	li	a5,116
    144a:	858a                	mv	a1,sp
    144c:	c0040513          	addi	a0,s0,-1024
    1450:	807c                	sh	a5,0(sp)
    1452:	3b51                	jal	11e6 <GPIO_Init>
    1454:	0c800793          	li	a5,200
    1458:	a0ad                	j	14c2 <GPIO_IPD_Unused+0x1bc>
    145a:	00630737          	lui	a4,0x630
    145e:	60070713          	addi	a4,a4,1536 # 630600 <_data_lma+0x62cc18>
    1462:	b781                	j	13a2 <GPIO_IPD_Unused+0x9c>
    1464:	00731737          	lui	a4,0x731
    1468:	80070713          	addi	a4,a4,-2048 # 730800 <_data_lma+0x72ce18>
    146c:	02e78663          	beq	a5,a4,1498 <GPIO_IPD_Unused+0x192>
    1470:	00f76b63          	bltu	a4,a5,1486 <GPIO_IPD_Unused+0x180>
    1474:	00701737          	lui	a4,0x701
    1478:	80070713          	addi	a4,a4,-2048 # 700800 <_data_lma+0x6fce18>
    147c:	04e78863          	beq	a5,a4,14cc <GPIO_IPD_Unused+0x1c6>
    1480:	00710737          	lui	a4,0x710
    1484:	b74d                	j	1426 <GPIO_IPD_Unused+0x120>
    1486:	00741737          	lui	a4,0x741
    148a:	80070713          	addi	a4,a4,-2048 # 740800 <_data_lma+0x73ce18>
    148e:	eee797e3          	bne	a5,a4,137c <GPIO_IPD_Unused+0x76>
    1492:	0c000793          	li	a5,192
    1496:	bf71                	j	1432 <GPIO_IPD_Unused+0x12c>
    1498:	0c000793          	li	a5,192
    149c:	40011437          	lui	s0,0x40011
    14a0:	807c                	sh	a5,0(sp)
    14a2:	858a                	mv	a1,sp
    14a4:	02800793          	li	a5,40
    14a8:	80040513          	addi	a0,s0,-2048 # 40010800 <_eusrstack+0x2000f000>
    14ac:	c43e                	sw	a5,8(sp)
    14ae:	3b25                	jal	11e6 <GPIO_Init>
    14b0:	07400793          	li	a5,116
    14b4:	858a                	mv	a1,sp
    14b6:	c0040513          	addi	a0,s0,-1024
    14ba:	807c                	sh	a5,0(sp)
    14bc:	332d                	jal	11e6 <GPIO_Init>
    14be:	0c900793          	li	a5,201
    14c2:	807c                	sh	a5,0(sp)
    14c4:	858a                	mv	a1,sp
    14c6:	40011537          	lui	a0,0x40011
    14ca:	b701                	j	13ca <GPIO_IPD_Unused+0xc4>
    14cc:	0c000793          	li	a5,192
    14d0:	40011437          	lui	s0,0x40011
    14d4:	807c                	sh	a5,0(sp)
    14d6:	858a                	mv	a1,sp
    14d8:	02800793          	li	a5,40
    14dc:	80040513          	addi	a0,s0,-2048 # 40010800 <_eusrstack+0x2000f000>
    14e0:	c43e                	sw	a5,8(sp)
    14e2:	3311                	jal	11e6 <GPIO_Init>
    14e4:	07400793          	li	a5,116
    14e8:	858a                	mv	a1,sp
    14ea:	c0040513          	addi	a0,s0,-1024
    14ee:	807c                	sh	a5,0(sp)
    14f0:	39dd                	jal	11e6 <GPIO_Init>
    14f2:	0cb00793          	li	a5,203
    14f6:	b7f1                	j	14c2 <GPIO_IPD_Unused+0x1bc>
    14f8:	06900793          	li	a5,105
    14fc:	40011437          	lui	s0,0x40011
    1500:	807c                	sh	a5,0(sp)
    1502:	858a                	mv	a1,sp
    1504:	02800793          	li	a5,40
    1508:	80040513          	addi	a0,s0,-2048 # 40010800 <_eusrstack+0x2000f000>
    150c:	c43e                	sw	a5,8(sp)
    150e:	cd9ff0ef          	jal	ra,11e6 <GPIO_Init>
    1512:	47ad                	li	a5,11
    1514:	858a                	mv	a1,sp
    1516:	c0040513          	addi	a0,s0,-1024
    151a:	807c                	sh	a5,0(sp)
    151c:	ccbff0ef          	jal	ra,11e6 <GPIO_Init>
    1520:	02c00793          	li	a5,44
    1524:	858a                	mv	a1,sp
    1526:	40011537          	lui	a0,0x40011
    152a:	807c                	sh	a5,0(sp)
    152c:	cbbff0ef          	jal	ra,11e6 <GPIO_Init>
    1530:	06c00793          	li	a5,108
    1534:	a0b9                	j	1582 <GPIO_IPD_Unused+0x27c>
    1536:	0c800793          	li	a5,200
    153a:	807c                	sh	a5,0(sp)
    153c:	02800793          	li	a5,40
    1540:	c43e                	sw	a5,8(sp)
    1542:	b749                	j	14c4 <GPIO_IPD_Unused+0x1be>
    1544:	0f900793          	li	a5,249
    1548:	40011437          	lui	s0,0x40011
    154c:	807c                	sh	a5,0(sp)
    154e:	858a                	mv	a1,sp
    1550:	02800793          	li	a5,40
    1554:	80040513          	addi	a0,s0,-2048 # 40010800 <_eusrstack+0x2000f000>
    1558:	c43e                	sw	a5,8(sp)
    155a:	c8dff0ef          	jal	ra,11e6 <GPIO_Init>
    155e:	07f00793          	li	a5,127
    1562:	858a                	mv	a1,sp
    1564:	c0040513          	addi	a0,s0,-1024
    1568:	807c                	sh	a5,0(sp)
    156a:	c7dff0ef          	jal	ra,11e6 <GPIO_Init>
    156e:	0e900793          	li	a5,233
    1572:	858a                	mv	a1,sp
    1574:	40011537          	lui	a0,0x40011
    1578:	807c                	sh	a5,0(sp)
    157a:	c6dff0ef          	jal	ra,11e6 <GPIO_Init>
    157e:	08d00793          	li	a5,141
    1582:	807c                	sh	a5,0(sp)
    1584:	858a                	mv	a1,sp
    1586:	40040513          	addi	a0,s0,1024
    158a:	b581                	j	13ca <GPIO_IPD_Unused+0xc4>
    158c:	0f900793          	li	a5,249
    1590:	40011437          	lui	s0,0x40011
    1594:	807c                	sh	a5,0(sp)
    1596:	858a                	mv	a1,sp
    1598:	02800793          	li	a5,40
    159c:	80040513          	addi	a0,s0,-2048 # 40010800 <_eusrstack+0x2000f000>
    15a0:	c43e                	sw	a5,8(sp)
    15a2:	c45ff0ef          	jal	ra,11e6 <GPIO_Init>
    15a6:	07f00793          	li	a5,127
    15aa:	858a                	mv	a1,sp
    15ac:	c0040513          	addi	a0,s0,-1024
    15b0:	807c                	sh	a5,0(sp)
    15b2:	c35ff0ef          	jal	ra,11e6 <GPIO_Init>
    15b6:	02600793          	li	a5,38
    15ba:	b7ad                	j	1524 <GPIO_IPD_Unused+0x21e>
    15bc:	0f900793          	li	a5,249
    15c0:	40011437          	lui	s0,0x40011
    15c4:	807c                	sh	a5,0(sp)
    15c6:	858a                	mv	a1,sp
    15c8:	02800793          	li	a5,40
    15cc:	80040513          	addi	a0,s0,-2048 # 40010800 <_eusrstack+0x2000f000>
    15d0:	c43e                	sw	a5,8(sp)
    15d2:	c15ff0ef          	jal	ra,11e6 <GPIO_Init>
    15d6:	07f00793          	li	a5,127
    15da:	858a                	mv	a1,sp
    15dc:	c0040513          	addi	a0,s0,-1024
    15e0:	807c                	sh	a5,0(sp)
    15e2:	c05ff0ef          	jal	ra,11e6 <GPIO_Init>
    15e6:	02000793          	li	a5,32
    15ea:	858a                	mv	a1,sp
    15ec:	40011537          	lui	a0,0x40011
    15f0:	807c                	sh	a5,0(sp)
    15f2:	bf5ff0ef          	jal	ra,11e6 <GPIO_Init>
    15f6:	47b5                	li	a5,13
    15f8:	b769                	j	1582 <GPIO_IPD_Unused+0x27c>

000015fa <NVIC_Init>:
    15fa:	c9c1a703          	lw	a4,-868(gp) # 200006e4 <NVIC_Priority_Group>
    15fe:	4785                	li	a5,1
    1600:	2114                	lbu	a3,0(a0)
    1602:	02f71063          	bne	a4,a5,1622 <NVIC_Init+0x28>
    1606:	311c                	lbu	a5,1(a0)
    1608:	02e79c63          	bne	a5,a4,1640 <NVIC_Init+0x46>
    160c:	213c                	lbu	a5,2(a0)
    160e:	079a                	slli	a5,a5,0x6
    1610:	f807e793          	ori	a5,a5,-128
    1614:	e000e737          	lui	a4,0xe000e
    1618:	0ff7f793          	zext.b	a5,a5
    161c:	9736                	add	a4,a4,a3
    161e:	40f70023          	sb	a5,1024(a4) # e000e400 <_eusrstack+0xc000cc00>
    1622:	4705                	li	a4,1
    1624:	0056d793          	srli	a5,a3,0x5
    1628:	00d71733          	sll	a4,a4,a3
    162c:	4154                	lw	a3,4(a0)
    162e:	ce89                	beqz	a3,1648 <NVIC_Init+0x4e>
    1630:	04078793          	addi	a5,a5,64
    1634:	078a                	slli	a5,a5,0x2
    1636:	e000e6b7          	lui	a3,0xe000e
    163a:	97b6                	add	a5,a5,a3
    163c:	c398                	sw	a4,0(a5)
    163e:	8082                	ret
    1640:	f3ed                	bnez	a5,1622 <NVIC_Init+0x28>
    1642:	213c                	lbu	a5,2(a0)
    1644:	079a                	slli	a5,a5,0x6
    1646:	b7f9                	j	1614 <NVIC_Init+0x1a>
    1648:	06078793          	addi	a5,a5,96
    164c:	e000e6b7          	lui	a3,0xe000e
    1650:	078a                	slli	a5,a5,0x2
    1652:	97b6                	add	a5,a5,a3
    1654:	c398                	sw	a4,0(a5)
    1656:	0000100f          	.4byte	0x100f
    165a:	8082                	ret

0000165c <OPA_Unlock>:
    165c:	456707b7          	lui	a5,0x45670
    1660:	40024737          	lui	a4,0x40024
    1664:	12378793          	addi	a5,a5,291 # 45670123 <_eusrstack+0x2566e923>
    1668:	cb1c                	sw	a5,16(a4)
    166a:	cdef97b7          	lui	a5,0xcdef9
    166e:	9ab78793          	addi	a5,a5,-1621 # cdef89ab <_eusrstack+0xadef71ab>
    1672:	cb1c                	sw	a5,16(a4)
    1674:	8082                	ret

00001676 <OPA_Init>:
    1676:	40024737          	lui	a4,0x40024
    167a:	431c                	lw	a5,0(a4)
    167c:	f1c10637          	lui	a2,0xf1c10
    1680:	a0260613          	addi	a2,a2,-1534 # f1c0fa02 <_eusrstack+0xd1c0e202>
    1684:	8ff1                	and	a5,a5,a2
    1686:	4110                	lw	a2,0(a0)
    1688:	590c                	lw	a1,48(a0)
    168a:	4354                	lw	a3,4(a4)
    168c:	8fd1                	or	a5,a5,a2
    168e:	4150                	lw	a2,4(a0)
    1690:	0592                	slli	a1,a1,0x4
    1692:	060a                	slli	a2,a2,0x2
    1694:	8fd1                	or	a5,a5,a2
    1696:	4510                	lw	a2,8(a0)
    1698:	0612                	slli	a2,a2,0x4
    169a:	8fd1                	or	a5,a5,a2
    169c:	4550                	lw	a2,12(a0)
    169e:	0616                	slli	a2,a2,0x5
    16a0:	8fd1                	or	a5,a5,a2
    16a2:	4910                	lw	a2,16(a0)
    16a4:	061e                	slli	a2,a2,0x7
    16a6:	8fd1                	or	a5,a5,a2
    16a8:	4950                	lw	a2,20(a0)
    16aa:	0622                	slli	a2,a2,0x8
    16ac:	8fd1                	or	a5,a5,a2
    16ae:	4d10                	lw	a2,24(a0)
    16b0:	062a                	slli	a2,a2,0xa
    16b2:	8fd1                	or	a5,a5,a2
    16b4:	4d50                	lw	a2,28(a0)
    16b6:	0642                	slli	a2,a2,0x10
    16b8:	8fd1                	or	a5,a5,a2
    16ba:	5110                	lw	a2,32(a0)
    16bc:	064a                	slli	a2,a2,0x12
    16be:	8fd1                	or	a5,a5,a2
    16c0:	5150                	lw	a2,36(a0)
    16c2:	0652                	slli	a2,a2,0x14
    16c4:	8fd1                	or	a5,a5,a2
    16c6:	5510                	lw	a2,40(a0)
    16c8:	0666                	slli	a2,a2,0x19
    16ca:	8e5d                	or	a2,a2,a5
    16cc:	555c                	lw	a5,44(a0)
    16ce:	0786                	slli	a5,a5,0x1
    16d0:	8fcd                	or	a5,a5,a1
    16d2:	ffe0e5b7          	lui	a1,0xffe0e
    16d6:	0c958593          	addi	a1,a1,201 # ffe0e0c9 <_eusrstack+0xdfe0c8c9>
    16da:	8eed                	and	a3,a3,a1
    16dc:	8fd5                	or	a5,a5,a3
    16de:	5954                	lw	a3,52(a0)
    16e0:	06a2                	slli	a3,a3,0x8
    16e2:	8fd5                	or	a5,a5,a3
    16e4:	5d14                	lw	a3,56(a0)
    16e6:	06ae                	slli	a3,a3,0xb
    16e8:	8fd5                	or	a5,a5,a3
    16ea:	5d54                	lw	a3,60(a0)
    16ec:	06b2                	slli	a3,a3,0xc
    16ee:	8fd5                	or	a5,a5,a3
    16f0:	4134                	lw	a3,64(a0)
    16f2:	06c2                	slli	a3,a3,0x10
    16f4:	8fd5                	or	a5,a5,a3
    16f6:	4174                	lw	a3,68(a0)
    16f8:	06c6                	slli	a3,a3,0x11
    16fa:	8fd5                	or	a5,a5,a3
    16fc:	4534                	lw	a3,72(a0)
    16fe:	06ca                	slli	a3,a3,0x12
    1700:	8fd5                	or	a5,a5,a3
    1702:	4574                	lw	a3,76(a0)
    1704:	c310                	sw	a2,0(a4)
    1706:	06d2                	slli	a3,a3,0x14
    1708:	8fd5                	or	a5,a5,a3
    170a:	c35c                	sw	a5,4(a4)
    170c:	8082                	ret

0000170e <OPA_Cmd>:
    170e:	4785                	li	a5,1
    1710:	40024737          	lui	a4,0x40024
    1714:	00f51763          	bne	a0,a5,1722 <OPA_Cmd+0x14>
    1718:	435c                	lw	a5,4(a4)
    171a:	0017e793          	ori	a5,a5,1
    171e:	c35c                	sw	a5,4(a4)
    1720:	8082                	ret
    1722:	435c                	lw	a5,4(a4)
    1724:	9bf9                	andi	a5,a5,-2
    1726:	bfe5                	j	171e <OPA_Cmd+0x10>

00001728 <RCC_ADCCLKConfig>:
    1728:	400216b7          	lui	a3,0x40021
    172c:	42dc                	lw	a5,4(a3)
    172e:	7fff0737          	lui	a4,0x7fff0
    1732:	7ff70713          	addi	a4,a4,2047 # 7fff07ff <_eusrstack+0x5ffeefff>
    1736:	8ff9                	and	a5,a5,a4
    1738:	8fc9                	or	a5,a5,a0
    173a:	c2dc                	sw	a5,4(a3)
    173c:	8082                	ret

0000173e <RCC_HBPeriphClockCmd>:
    173e:	c599                	beqz	a1,174c <RCC_HBPeriphClockCmd+0xe>
    1740:	40021737          	lui	a4,0x40021
    1744:	4b5c                	lw	a5,20(a4)
    1746:	8fc9                	or	a5,a5,a0
    1748:	cb5c                	sw	a5,20(a4)
    174a:	8082                	ret
    174c:	400217b7          	lui	a5,0x40021
    1750:	4bd8                	lw	a4,20(a5)
    1752:	fff54513          	not	a0,a0
    1756:	8d79                	and	a0,a0,a4
    1758:	cbc8                	sw	a0,20(a5)
    175a:	8082                	ret

0000175c <RCC_PB2PeriphClockCmd>:
    175c:	c599                	beqz	a1,176a <RCC_PB2PeriphClockCmd+0xe>
    175e:	40021737          	lui	a4,0x40021
    1762:	4f1c                	lw	a5,24(a4)
    1764:	8fc9                	or	a5,a5,a0
    1766:	cf1c                	sw	a5,24(a4)
    1768:	8082                	ret
    176a:	400217b7          	lui	a5,0x40021
    176e:	4f98                	lw	a4,24(a5)
    1770:	fff54513          	not	a0,a0
    1774:	8d79                	and	a0,a0,a4
    1776:	cf88                	sw	a0,24(a5)
    1778:	8082                	ret

0000177a <RCC_PB2PeriphResetCmd>:
    177a:	c599                	beqz	a1,1788 <RCC_PB2PeriphResetCmd+0xe>
    177c:	40021737          	lui	a4,0x40021
    1780:	475c                	lw	a5,12(a4)
    1782:	8fc9                	or	a5,a5,a0
    1784:	c75c                	sw	a5,12(a4)
    1786:	8082                	ret
    1788:	400217b7          	lui	a5,0x40021
    178c:	47d8                	lw	a4,12(a5)
    178e:	fff54513          	not	a0,a0
    1792:	8d79                	and	a0,a0,a4
    1794:	c7c8                	sw	a0,12(a5)
    1796:	8082                	ret

00001798 <TIM_TimeBaseInit>:
    1798:	400137b7          	lui	a5,0x40013
    179c:	c0078793          	addi	a5,a5,-1024 # 40012c00 <_eusrstack+0x20011400>
    17a0:	00f50663          	beq	a0,a5,17ac <TIM_TimeBaseInit+0x14>
    17a4:	400007b7          	lui	a5,0x40000
    17a8:	02f51d63          	bne	a0,a5,17e2 <TIM_TimeBaseInit+0x4a>
    17ac:	211e                	lhu	a5,0(a0)
    17ae:	21ba                	lhu	a4,2(a1)
    17b0:	07c2                	slli	a5,a5,0x10
    17b2:	83c1                	srli	a5,a5,0x10
    17b4:	f8f7f793          	andi	a5,a5,-113
    17b8:	8fd9                	or	a5,a5,a4
    17ba:	21fa                	lhu	a4,6(a1)
    17bc:	cff7f793          	andi	a5,a5,-769
    17c0:	8fd9                	or	a5,a5,a4
    17c2:	a11e                	sh	a5,0(a0)
    17c4:	21de                	lhu	a5,4(a1)
    17c6:	b55e                	sh	a5,44(a0)
    17c8:	219e                	lhu	a5,0(a1)
    17ca:	b51e                	sh	a5,40(a0)
    17cc:	400137b7          	lui	a5,0x40013
    17d0:	c0078793          	addi	a5,a5,-1024 # 40012c00 <_eusrstack+0x20011400>
    17d4:	00f51463          	bne	a0,a5,17dc <TIM_TimeBaseInit+0x44>
    17d8:	259c                	lbu	a5,8(a1)
    17da:	b91e                	sh	a5,48(a0)
    17dc:	4785                	li	a5,1
    17de:	a95e                	sh	a5,20(a0)
    17e0:	8082                	ret
    17e2:	400017b7          	lui	a5,0x40001
    17e6:	80078793          	addi	a5,a5,-2048 # 40000800 <_eusrstack+0x1ffff000>
    17ea:	00f51c63          	bne	a0,a5,1802 <TIM_TimeBaseInit+0x6a>
    17ee:	211e                	lhu	a5,0(a0)
    17f0:	21ba                	lhu	a4,2(a1)
    17f2:	07c2                	slli	a5,a5,0x10
    17f4:	83c1                	srli	a5,a5,0x10
    17f6:	f8f7f793          	andi	a5,a5,-113
    17fa:	8fd9                	or	a5,a5,a4
    17fc:	a11e                	sh	a5,0(a0)
    17fe:	21de                	lhu	a5,4(a1)
    1800:	a55e                	sh	a5,12(a0)
    1802:	8082                	ret

00001804 <TIM_OC1Init>:
    1804:	311e                	lhu	a5,32(a0)
    1806:	219a                	lhu	a4,0(a1)
    1808:	0085d303          	lhu	t1,8(a1)
    180c:	07c2                	slli	a5,a5,0x10
    180e:	83c1                	srli	a5,a5,0x10
    1810:	9bf9                	andi	a5,a5,-2
    1812:	07c2                	slli	a5,a5,0x10
    1814:	83c1                	srli	a5,a5,0x10
    1816:	b11e                	sh	a5,32(a0)
    1818:	311e                	lhu	a5,32(a0)
    181a:	2152                	lhu	a2,4(a0)
    181c:	2d16                	lhu	a3,24(a0)
    181e:	07c2                	slli	a5,a5,0x10
    1820:	83c1                	srli	a5,a5,0x10
    1822:	06c2                	slli	a3,a3,0x10
    1824:	82c1                	srli	a3,a3,0x10
    1826:	f8c6f693          	andi	a3,a3,-116
    182a:	8ed9                	or	a3,a3,a4
    182c:	21ba                	lhu	a4,2(a1)
    182e:	9bf5                	andi	a5,a5,-3
    1830:	0642                	slli	a2,a2,0x10
    1832:	00e36733          	or	a4,t1,a4
    1836:	8fd9                	or	a5,a5,a4
    1838:	40013737          	lui	a4,0x40013
    183c:	c0070713          	addi	a4,a4,-1024 # 40012c00 <_eusrstack+0x20011400>
    1840:	8241                	srli	a2,a2,0x10
    1842:	02e51663          	bne	a0,a4,186e <TIM_OC1Init+0x6a>
    1846:	25ba                	lhu	a4,10(a1)
    1848:	9bdd                	andi	a5,a5,-9
    184a:	00e5d303          	lhu	t1,14(a1)
    184e:	8fd9                	or	a5,a5,a4
    1850:	21da                	lhu	a4,4(a1)
    1852:	9bed                	andi	a5,a5,-5
    1854:	cff67613          	andi	a2,a2,-769
    1858:	8fd9                	or	a5,a5,a4
    185a:	25da                	lhu	a4,12(a1)
    185c:	00676733          	or	a4,a4,t1
    1860:	8e59                	or	a2,a2,a4
    1862:	21fa                	lhu	a4,6(a1)
    1864:	a152                	sh	a2,4(a0)
    1866:	ad16                	sh	a3,24(a0)
    1868:	d958                	sw	a4,52(a0)
    186a:	b11e                	sh	a5,32(a0)
    186c:	8082                	ret
    186e:	40000737          	lui	a4,0x40000
    1872:	fee518e3          	bne	a0,a4,1862 <TIM_OC1Init+0x5e>
    1876:	04455703          	lhu	a4,68(a0) # 40011044 <_eusrstack+0x2000f844>
    187a:	0306                	slli	t1,t1,0x1
    187c:	0742                	slli	a4,a4,0x10
    187e:	8341                	srli	a4,a4,0x10
    1880:	9b49                	andi	a4,a4,-14
    1882:	0742                	slli	a4,a4,0x10
    1884:	8341                	srli	a4,a4,0x10
    1886:	04e51223          	sh	a4,68(a0)
    188a:	04455283          	lhu	t0,68(a0)
    188e:	21da                	lhu	a4,4(a1)
    1890:	00a5d383          	lhu	t2,10(a1)
    1894:	8309                	srli	a4,a4,0x2
    1896:	0072e2b3          	or	t0,t0,t2
    189a:	00576733          	or	a4,a4,t0
    189e:	00676733          	or	a4,a4,t1
    18a2:	0742                	slli	a4,a4,0x10
    18a4:	8341                	srli	a4,a4,0x10
    18a6:	04e51223          	sh	a4,68(a0)
    18aa:	bf65                	j	1862 <TIM_OC1Init+0x5e>

000018ac <TIM_Cmd>:
    18ac:	400137b7          	lui	a5,0x40013
    18b0:	c0078793          	addi	a5,a5,-1024 # 40012c00 <_eusrstack+0x20011400>
    18b4:	c19d                	beqz	a1,18da <TIM_Cmd+0x2e>
    18b6:	00f50663          	beq	a0,a5,18c2 <TIM_Cmd+0x16>
    18ba:	400007b7          	lui	a5,0x40000
    18be:	00f51763          	bne	a0,a5,18cc <TIM_Cmd+0x20>
    18c2:	211e                	lhu	a5,0(a0)
    18c4:	0017e793          	ori	a5,a5,1
    18c8:	a11e                	sh	a5,0(a0)
    18ca:	a039                	j	18d8 <TIM_Cmd+0x2c>
    18cc:	400017b7          	lui	a5,0x40001
    18d0:	80078793          	addi	a5,a5,-2048 # 40000800 <_eusrstack+0x1ffff000>
    18d4:	fef507e3          	beq	a0,a5,18c2 <TIM_Cmd+0x16>
    18d8:	8082                	ret
    18da:	00f50663          	beq	a0,a5,18e6 <TIM_Cmd+0x3a>
    18de:	400007b7          	lui	a5,0x40000
    18e2:	00f51963          	bne	a0,a5,18f4 <TIM_Cmd+0x48>
    18e6:	211e                	lhu	a5,0(a0)
    18e8:	07c2                	slli	a5,a5,0x10
    18ea:	83c1                	srli	a5,a5,0x10
    18ec:	9bf9                	andi	a5,a5,-2
    18ee:	07c2                	slli	a5,a5,0x10
    18f0:	83c1                	srli	a5,a5,0x10
    18f2:	bfd9                	j	18c8 <TIM_Cmd+0x1c>
    18f4:	400017b7          	lui	a5,0x40001
    18f8:	80078793          	addi	a5,a5,-2048 # 40000800 <_eusrstack+0x1ffff000>
    18fc:	fcf51ee3          	bne	a0,a5,18d8 <TIM_Cmd+0x2c>
    1900:	b7dd                	j	18e6 <TIM_Cmd+0x3a>

00001902 <TIM_CtrlPWMOutputs>:
    1902:	04455783          	lhu	a5,68(a0)
    1906:	c591                	beqz	a1,1912 <TIM_CtrlPWMOutputs+0x10>
    1908:	6721                	lui	a4,0x8
    190a:	8fd9                	or	a5,a5,a4
    190c:	04f51223          	sh	a5,68(a0)
    1910:	8082                	ret
    1912:	07c6                	slli	a5,a5,0x11
    1914:	83c5                	srli	a5,a5,0x11
    1916:	bfdd                	j	190c <TIM_CtrlPWMOutputs+0xa>

00001918 <TIM_ARRPreloadConfig>:
    1918:	400137b7          	lui	a5,0x40013
    191c:	c0078793          	addi	a5,a5,-1024 # 40012c00 <_eusrstack+0x20011400>
    1920:	c19d                	beqz	a1,1946 <TIM_ARRPreloadConfig+0x2e>
    1922:	00f50663          	beq	a0,a5,192e <TIM_ARRPreloadConfig+0x16>
    1926:	400007b7          	lui	a5,0x40000
    192a:	00f51763          	bne	a0,a5,1938 <TIM_ARRPreloadConfig+0x20>
    192e:	211e                	lhu	a5,0(a0)
    1930:	0807e793          	ori	a5,a5,128
    1934:	a11e                	sh	a5,0(a0)
    1936:	a039                	j	1944 <TIM_ARRPreloadConfig+0x2c>
    1938:	400017b7          	lui	a5,0x40001
    193c:	80078793          	addi	a5,a5,-2048 # 40000800 <_eusrstack+0x1ffff000>
    1940:	fef507e3          	beq	a0,a5,192e <TIM_ARRPreloadConfig+0x16>
    1944:	8082                	ret
    1946:	00f50663          	beq	a0,a5,1952 <TIM_ARRPreloadConfig+0x3a>
    194a:	400007b7          	lui	a5,0x40000
    194e:	00f51a63          	bne	a0,a5,1962 <TIM_ARRPreloadConfig+0x4a>
    1952:	211e                	lhu	a5,0(a0)
    1954:	07c2                	slli	a5,a5,0x10
    1956:	83c1                	srli	a5,a5,0x10
    1958:	f7f7f793          	andi	a5,a5,-129
    195c:	07c2                	slli	a5,a5,0x10
    195e:	83c1                	srli	a5,a5,0x10
    1960:	bfd1                	j	1934 <TIM_ARRPreloadConfig+0x1c>
    1962:	400017b7          	lui	a5,0x40001
    1966:	80078793          	addi	a5,a5,-2048 # 40000800 <_eusrstack+0x1ffff000>
    196a:	fcf51de3          	bne	a0,a5,1944 <TIM_ARRPreloadConfig+0x2c>
    196e:	b7d5                	j	1952 <TIM_ARRPreloadConfig+0x3a>

00001970 <TIM_OC1PreloadConfig>:
    1970:	400137b7          	lui	a5,0x40013
    1974:	c0078793          	addi	a5,a5,-1024 # 40012c00 <_eusrstack+0x20011400>
    1978:	00f50663          	beq	a0,a5,1984 <TIM_OC1PreloadConfig+0x14>
    197c:	400007b7          	lui	a5,0x40000
    1980:	00f51963          	bne	a0,a5,1992 <TIM_OC1PreloadConfig+0x22>
    1984:	2d1e                	lhu	a5,24(a0)
    1986:	07c2                	slli	a5,a5,0x10
    1988:	83c1                	srli	a5,a5,0x10
    198a:	9bdd                	andi	a5,a5,-9
    198c:	8ddd                	or	a1,a1,a5
    198e:	ad0e                	sh	a1,24(a0)
    1990:	8082                	ret
    1992:	400017b7          	lui	a5,0x40001
    1996:	80078793          	addi	a5,a5,-2048 # 40000800 <_eusrstack+0x1ffff000>
    199a:	00f51963          	bne	a0,a5,19ac <TIM_OC1PreloadConfig+0x3c>
    199e:	215e                	lhu	a5,4(a0)
    19a0:	818d                	srli	a1,a1,0x3
    19a2:	07c2                	slli	a5,a5,0x10
    19a4:	83c1                	srli	a5,a5,0x10
    19a6:	9bf9                	andi	a5,a5,-2
    19a8:	8ddd                	or	a1,a1,a5
    19aa:	a14e                	sh	a1,4(a0)
    19ac:	8082                	ret

000019ae <Delay_Init>:
    19ae:	efafe2ef          	jal	t0,a8 <__riscv_save_0>
    19b2:	200007b7          	lui	a5,0x20000
    19b6:	2447a503          	lw	a0,580(a5) # 20000244 <SystemCoreClock>
    19ba:	007a15b7          	lui	a1,0x7a1
    19be:	20058593          	addi	a1,a1,512 # 7a1200 <_data_lma+0x79d818>
    19c2:	f02fe0ef          	jal	ra,c4 <__hidden___udivsi3>
    19c6:	0ff57513          	zext.b	a0,a0
    19ca:	caa18123          	sb	a0,-862(gp) # 200006ea <p_us>
    19ce:	3e800793          	li	a5,1000
    19d2:	02f50533          	mul	a0,a0,a5
    19d6:	caa19023          	sh	a0,-864(gp) # 200006e8 <p_ms>
    19da:	ed8fe06f          	j	b2 <__riscv_restore_0>

000019de <Delay_Us>:
    19de:	e000f7b7          	lui	a5,0xe000f
    19e2:	43d8                	lw	a4,4(a5)
    19e4:	9b79                	andi	a4,a4,-2
    19e6:	c3d8                	sw	a4,4(a5)
    19e8:	ca21c703          	lbu	a4,-862(gp) # 200006ea <p_us>
    19ec:	02a70733          	mul	a4,a4,a0
    19f0:	cb98                	sw	a4,16(a5)
    19f2:	0007a423          	sw	zero,8(a5) # e000f008 <_eusrstack+0xc000d808>
    19f6:	4398                	lw	a4,0(a5)
    19f8:	00176713          	ori	a4,a4,1
    19fc:	c398                	sw	a4,0(a5)
    19fe:	43d8                	lw	a4,4(a5)
    1a00:	8b05                	andi	a4,a4,1
    1a02:	df75                	beqz	a4,19fe <Delay_Us+0x20>
    1a04:	4398                	lw	a4,0(a5)
    1a06:	9b79                	andi	a4,a4,-2
    1a08:	c398                	sw	a4,0(a5)
    1a0a:	8082                	ret

00001a0c <Delay_Ms>:
    1a0c:	e000f7b7          	lui	a5,0xe000f
    1a10:	43d8                	lw	a4,4(a5)
    1a12:	9b79                	andi	a4,a4,-2
    1a14:	c3d8                	sw	a4,4(a5)
    1a16:	ca01d703          	lhu	a4,-864(gp) # 200006e8 <p_ms>
    1a1a:	02a70733          	mul	a4,a4,a0
    1a1e:	cb98                	sw	a4,16(a5)
    1a20:	0007a423          	sw	zero,8(a5) # e000f008 <_eusrstack+0xc000d808>
    1a24:	4398                	lw	a4,0(a5)
    1a26:	00176713          	ori	a4,a4,1
    1a2a:	c398                	sw	a4,0(a5)
    1a2c:	43d8                	lw	a4,4(a5)
    1a2e:	8b05                	andi	a4,a4,1
    1a30:	df75                	beqz	a4,1a2c <Delay_Ms+0x20>
    1a32:	4398                	lw	a4,0(a5)
    1a34:	9b79                	andi	a4,a4,-2
    1a36:	c398                	sw	a4,0(a5)
    1a38:	8082                	ret

00001a3a <__addsf3>:
    1a3a:	1141                	addi	sp,sp,-16
    1a3c:	00800737          	lui	a4,0x800
    1a40:	177d                	addi	a4,a4,-1 # 7fffff <_data_lma+0x7fc617>
    1a42:	0175d693          	srli	a3,a1,0x17
    1a46:	c226                	sw	s1,4(sp)
    1a48:	01755493          	srli	s1,a0,0x17
    1a4c:	00a777b3          	and	a5,a4,a0
    1a50:	c422                	sw	s0,8(sp)
    1a52:	8f6d                	and	a4,a4,a1
    1a54:	0ff4f493          	zext.b	s1,s1
    1a58:	01f55413          	srli	s0,a0,0x1f
    1a5c:	c606                	sw	ra,12(sp)
    1a5e:	0ff6f513          	zext.b	a0,a3
    1a62:	81fd                	srli	a1,a1,0x1f
    1a64:	078e                	slli	a5,a5,0x3
    1a66:	070e                	slli	a4,a4,0x3
    1a68:	40a48633          	sub	a2,s1,a0
    1a6c:	04b40163          	beq	s0,a1,1aae <__addsf3+0x74>
    1a70:	00c05f63          	blez	a2,1a8e <__addsf3+0x54>
    1a74:	ed31                	bnez	a0,1ad0 <__addsf3+0x96>
    1a76:	10070e63          	beqz	a4,1b92 <__addsf3+0x158>
    1a7a:	fff60693          	addi	a3,a2,-1
    1a7e:	2a068b63          	beqz	a3,1d34 <__addsf3+0x2fa>
    1a82:	0ff00593          	li	a1,255
    1a86:	16b60a63          	beq	a2,a1,1bfa <__addsf3+0x1c0>
    1a8a:	8636                	mv	a2,a3
    1a8c:	a889                	j	1ade <__addsf3+0xa4>
    1a8e:	c261                	beqz	a2,1b4e <__addsf3+0x114>
    1a90:	40950633          	sub	a2,a0,s1
    1a94:	1c049963          	bnez	s1,1c66 <__addsf3+0x22c>
    1a98:	cbfd                	beqz	a5,1b8e <__addsf3+0x154>
    1a9a:	fff60693          	addi	a3,a2,-1
    1a9e:	2c068563          	beqz	a3,1d68 <__addsf3+0x32e>
    1aa2:	0ff00313          	li	t1,255
    1aa6:	14660863          	beq	a2,t1,1bf6 <__addsf3+0x1bc>
    1aaa:	8636                	mv	a2,a3
    1aac:	a2e1                	j	1c74 <__addsf3+0x23a>
    1aae:	86a2                	mv	a3,s0
    1ab0:	14c05763          	blez	a2,1bfe <__addsf3+0x1c4>
    1ab4:	c171                	beqz	a0,1b78 <__addsf3+0x13e>
    1ab6:	0ff00593          	li	a1,255
    1aba:	14b48063          	beq	s1,a1,1bfa <__addsf3+0x1c0>
    1abe:	040005b7          	lui	a1,0x4000
    1ac2:	8f4d                	or	a4,a4,a1
    1ac4:	45ed                	li	a1,27
    1ac6:	1ec5d663          	bge	a1,a2,1cb2 <__addsf3+0x278>
    1aca:	0785                	addi	a5,a5,1
    1acc:	8626                	mv	a2,s1
    1ace:	a089                	j	1b10 <__addsf3+0xd6>
    1ad0:	0ff00693          	li	a3,255
    1ad4:	12d48363          	beq	s1,a3,1bfa <__addsf3+0x1c0>
    1ad8:	040006b7          	lui	a3,0x4000
    1adc:	8f55                	or	a4,a4,a3
    1ade:	45ed                	li	a1,27
    1ae0:	4685                	li	a3,1
    1ae2:	00c5cd63          	blt	a1,a2,1afc <__addsf3+0xc2>
    1ae6:	02000693          	li	a3,32
    1aea:	8e91                	sub	a3,a3,a2
    1aec:	00d716b3          	sll	a3,a4,a3
    1af0:	00c75633          	srl	a2,a4,a2
    1af4:	00d03733          	snez	a4,a3
    1af8:	00e666b3          	or	a3,a2,a4
    1afc:	8f95                	sub	a5,a5,a3
    1afe:	04000737          	lui	a4,0x4000
    1b02:	00e7f6b3          	and	a3,a5,a4
    1b06:	e6d5                	bnez	a3,1bb2 <__addsf3+0x178>
    1b08:	0077f713          	andi	a4,a5,7
    1b0c:	8626                	mv	a2,s1
    1b0e:	c351                	beqz	a4,1b92 <__addsf3+0x158>
    1b10:	00f7f713          	andi	a4,a5,15
    1b14:	4691                	li	a3,4
    1b16:	00d70363          	beq	a4,a3,1b1c <__addsf3+0xe2>
    1b1a:	0791                	addi	a5,a5,4
    1b1c:	04000737          	lui	a4,0x4000
    1b20:	8f7d                	and	a4,a4,a5
    1b22:	cb25                	beqz	a4,1b92 <__addsf3+0x158>
    1b24:	00160513          	addi	a0,a2,1
    1b28:	0ff00713          	li	a4,255
    1b2c:	86a2                	mv	a3,s0
    1b2e:	06e50e63          	beq	a0,a4,1baa <__addsf3+0x170>
    1b32:	00679713          	slli	a4,a5,0x6
    1b36:	0ff57513          	zext.b	a0,a0
    1b3a:	8325                	srli	a4,a4,0x9
    1b3c:	40b2                	lw	ra,12(sp)
    1b3e:	4422                	lw	s0,8(sp)
    1b40:	055e                	slli	a0,a0,0x17
    1b42:	8d59                	or	a0,a0,a4
    1b44:	06fe                	slli	a3,a3,0x1f
    1b46:	4492                	lw	s1,4(sp)
    1b48:	8d55                	or	a0,a0,a3
    1b4a:	0141                	addi	sp,sp,16
    1b4c:	8082                	ret
    1b4e:	00148693          	addi	a3,s1,1
    1b52:	0fe6f693          	andi	a3,a3,254
    1b56:	14069363          	bnez	a3,1c9c <__addsf3+0x262>
    1b5a:	e8d9                	bnez	s1,1bf0 <__addsf3+0x1b6>
    1b5c:	20078263          	beqz	a5,1d60 <__addsf3+0x326>
    1b60:	cb75                	beqz	a4,1c54 <__addsf3+0x21a>
    1b62:	40e78533          	sub	a0,a5,a4
    1b66:	040006b7          	lui	a3,0x4000
    1b6a:	8ee9                	and	a3,a3,a0
    1b6c:	22068263          	beqz	a3,1d90 <__addsf3+0x356>
    1b70:	40f707b3          	sub	a5,a4,a5
    1b74:	842e                	mv	s0,a1
    1b76:	a88d                	j	1be8 <__addsf3+0x1ae>
    1b78:	cf09                	beqz	a4,1b92 <__addsf3+0x158>
    1b7a:	fff60593          	addi	a1,a2,-1
    1b7e:	1a058363          	beqz	a1,1d24 <__addsf3+0x2ea>
    1b82:	0ff00513          	li	a0,255
    1b86:	06a60a63          	beq	a2,a0,1bfa <__addsf3+0x1c0>
    1b8a:	862e                	mv	a2,a1
    1b8c:	bf25                	j	1ac4 <__addsf3+0x8a>
    1b8e:	842e                	mv	s0,a1
    1b90:	87ba                	mv	a5,a4
    1b92:	0ff00713          	li	a4,255
    1b96:	838d                	srli	a5,a5,0x3
    1b98:	0ce61063          	bne	a2,a4,1c58 <__addsf3+0x21e>
    1b9c:	cfc9                	beqz	a5,1c36 <__addsf3+0x1fc>
    1b9e:	4681                	li	a3,0
    1ba0:	0ff00513          	li	a0,255
    1ba4:	00400737          	lui	a4,0x400
    1ba8:	bf51                	j	1b3c <__addsf3+0x102>
    1baa:	0ff00513          	li	a0,255
    1bae:	4701                	li	a4,0
    1bb0:	b771                	j	1b3c <__addsf3+0x102>
    1bb2:	177d                	addi	a4,a4,-1 # 3fffff <_data_lma+0x3fc617>
    1bb4:	00e7f6b3          	and	a3,a5,a4
    1bb8:	8536                	mv	a0,a3
    1bba:	c036                	sw	a3,0(sp)
    1bbc:	697000ef          	jal	ra,2a52 <__clzsi2>
    1bc0:	4682                	lw	a3,0(sp)
    1bc2:	156d                	addi	a0,a0,-5
    1bc4:	00a696b3          	sll	a3,a3,a0
    1bc8:	06954063          	blt	a0,s1,1c28 <__addsf3+0x1ee>
    1bcc:	8d05                	sub	a0,a0,s1
    1bce:	00150793          	addi	a5,a0,1
    1bd2:	02000713          	li	a4,32
    1bd6:	8f1d                	sub	a4,a4,a5
    1bd8:	00e69733          	sll	a4,a3,a4
    1bdc:	00f6d7b3          	srl	a5,a3,a5
    1be0:	00e03733          	snez	a4,a4
    1be4:	8fd9                	or	a5,a5,a4
    1be6:	4601                	li	a2,0
    1be8:	0077f713          	andi	a4,a5,7
    1bec:	f315                	bnez	a4,1b10 <__addsf3+0xd6>
    1bee:	b73d                	j	1b1c <__addsf3+0xe2>
    1bf0:	14079763          	bnez	a5,1d3e <__addsf3+0x304>
    1bf4:	d74d                	beqz	a4,1b9e <__addsf3+0x164>
    1bf6:	842e                	mv	s0,a1
    1bf8:	87ba                	mv	a5,a4
    1bfa:	838d                	srli	a5,a5,0x3
    1bfc:	b745                	j	1b9c <__addsf3+0x162>
    1bfe:	c229                	beqz	a2,1c40 <__addsf3+0x206>
    1c00:	40950633          	sub	a2,a0,s1
    1c04:	e4fd                	bnez	s1,1cf2 <__addsf3+0x2b8>
    1c06:	d7c9                	beqz	a5,1b90 <__addsf3+0x156>
    1c08:	fff60593          	addi	a1,a2,-1
    1c0c:	10058c63          	beqz	a1,1d24 <__addsf3+0x2ea>
    1c10:	0ff00313          	li	t1,255
    1c14:	fe6602e3          	beq	a2,t1,1bf8 <__addsf3+0x1be>
    1c18:	862e                	mv	a2,a1
    1c1a:	45ed                	li	a1,27
    1c1c:	12c5d563          	bge	a1,a2,1d46 <__addsf3+0x30c>
    1c20:	00170793          	addi	a5,a4,1
    1c24:	862a                	mv	a2,a0
    1c26:	b5ed                	j	1b10 <__addsf3+0xd6>
    1c28:	fc0007b7          	lui	a5,0xfc000
    1c2c:	17fd                	addi	a5,a5,-1 # fbffffff <_eusrstack+0xdbffe7ff>
    1c2e:	40a48633          	sub	a2,s1,a0
    1c32:	8ff5                	and	a5,a5,a3
    1c34:	bf55                	j	1be8 <__addsf3+0x1ae>
    1c36:	86a2                	mv	a3,s0
    1c38:	0ff00513          	li	a0,255
    1c3c:	4701                	li	a4,0
    1c3e:	bdfd                	j	1b3c <__addsf3+0x102>
    1c40:	00148613          	addi	a2,s1,1
    1c44:	0fe67593          	andi	a1,a2,254
    1c48:	edcd                	bnez	a1,1d02 <__addsf3+0x2c8>
    1c4a:	e8e5                	bnez	s1,1d3a <__addsf3+0x300>
    1c4c:	12078363          	beqz	a5,1d72 <__addsf3+0x338>
    1c50:	12071363          	bnez	a4,1d76 <__addsf3+0x33c>
    1c54:	838d                	srli	a5,a5,0x3
    1c56:	4601                	li	a2,0
    1c58:	07a6                	slli	a5,a5,0x9
    1c5a:	0097d713          	srli	a4,a5,0x9
    1c5e:	0ff67513          	zext.b	a0,a2
    1c62:	86a2                	mv	a3,s0
    1c64:	bde1                	j	1b3c <__addsf3+0x102>
    1c66:	0ff00693          	li	a3,255
    1c6a:	f8d506e3          	beq	a0,a3,1bf6 <__addsf3+0x1bc>
    1c6e:	040006b7          	lui	a3,0x4000
    1c72:	8fd5                	or	a5,a5,a3
    1c74:	436d                	li	t1,27
    1c76:	4685                	li	a3,1
    1c78:	00c34d63          	blt	t1,a2,1c92 <__addsf3+0x258>
    1c7c:	02000693          	li	a3,32
    1c80:	8e91                	sub	a3,a3,a2
    1c82:	00d796b3          	sll	a3,a5,a3
    1c86:	00c7d633          	srl	a2,a5,a2
    1c8a:	00d037b3          	snez	a5,a3
    1c8e:	00f666b3          	or	a3,a2,a5
    1c92:	40d707b3          	sub	a5,a4,a3
    1c96:	84aa                	mv	s1,a0
    1c98:	842e                	mv	s0,a1
    1c9a:	b595                	j	1afe <__addsf3+0xc4>
    1c9c:	40e786b3          	sub	a3,a5,a4
    1ca0:	04000637          	lui	a2,0x4000
    1ca4:	8e75                	and	a2,a2,a3
    1ca6:	ea3d                	bnez	a2,1d1c <__addsf3+0x2e2>
    1ca8:	fa81                	bnez	a3,1bb8 <__addsf3+0x17e>
    1caa:	4681                	li	a3,0
    1cac:	4501                	li	a0,0
    1cae:	4701                	li	a4,0
    1cb0:	b571                	j	1b3c <__addsf3+0x102>
    1cb2:	02000593          	li	a1,32
    1cb6:	8d91                	sub	a1,a1,a2
    1cb8:	00b715b3          	sll	a1,a4,a1
    1cbc:	00c75733          	srl	a4,a4,a2
    1cc0:	00b03633          	snez	a2,a1
    1cc4:	8f51                	or	a4,a4,a2
    1cc6:	97ba                	add	a5,a5,a4
    1cc8:	04000737          	lui	a4,0x4000
    1ccc:	8f7d                	and	a4,a4,a5
    1cce:	e2070de3          	beqz	a4,1b08 <__addsf3+0xce>
    1cd2:	00148613          	addi	a2,s1,1
    1cd6:	0ff00513          	li	a0,255
    1cda:	4701                	li	a4,0
    1cdc:	e6a600e3          	beq	a2,a0,1b3c <__addsf3+0x102>
    1ce0:	7e0006b7          	lui	a3,0x7e000
    1ce4:	0017d713          	srli	a4,a5,0x1
    1ce8:	16fd                	addi	a3,a3,-1 # 7dffffff <_eusrstack+0x5dffe7ff>
    1cea:	8b85                	andi	a5,a5,1
    1cec:	8f75                	and	a4,a4,a3
    1cee:	8fd9                	or	a5,a5,a4
    1cf0:	bde5                	j	1be8 <__addsf3+0x1ae>
    1cf2:	0ff00593          	li	a1,255
    1cf6:	f0b501e3          	beq	a0,a1,1bf8 <__addsf3+0x1be>
    1cfa:	040005b7          	lui	a1,0x4000
    1cfe:	8fcd                	or	a5,a5,a1
    1d00:	bf29                	j	1c1a <__addsf3+0x1e0>
    1d02:	0ff00593          	li	a1,255
    1d06:	eab602e3          	beq	a2,a1,1baa <__addsf3+0x170>
    1d0a:	973e                	add	a4,a4,a5
    1d0c:	00175793          	srli	a5,a4,0x1
    1d10:	0077f693          	andi	a3,a5,7
    1d14:	de069ee3          	bnez	a3,1b10 <__addsf3+0xd6>
    1d18:	838d                	srli	a5,a5,0x3
    1d1a:	bf3d                	j	1c58 <__addsf3+0x21e>
    1d1c:	40f706b3          	sub	a3,a4,a5
    1d20:	842e                	mv	s0,a1
    1d22:	bd59                	j	1bb8 <__addsf3+0x17e>
    1d24:	97ba                	add	a5,a5,a4
    1d26:	04000737          	lui	a4,0x4000
    1d2a:	8f7d                	and	a4,a4,a5
    1d2c:	4609                	li	a2,2
    1d2e:	4485                	li	s1,1
    1d30:	fb45                	bnez	a4,1ce0 <__addsf3+0x2a6>
    1d32:	bbd9                	j	1b08 <__addsf3+0xce>
    1d34:	8f99                	sub	a5,a5,a4
    1d36:	4485                	li	s1,1
    1d38:	b3d9                	j	1afe <__addsf3+0xc4>
    1d3a:	ea078fe3          	beqz	a5,1bf8 <__addsf3+0x1be>
    1d3e:	e60710e3          	bnez	a4,1b9e <__addsf3+0x164>
    1d42:	838d                	srli	a5,a5,0x3
    1d44:	bda1                	j	1b9c <__addsf3+0x162>
    1d46:	02000593          	li	a1,32
    1d4a:	8d91                	sub	a1,a1,a2
    1d4c:	00b795b3          	sll	a1,a5,a1
    1d50:	00c7d7b3          	srl	a5,a5,a2
    1d54:	00b03633          	snez	a2,a1
    1d58:	8fd1                	or	a5,a5,a2
    1d5a:	97ba                	add	a5,a5,a4
    1d5c:	84aa                	mv	s1,a0
    1d5e:	b7ad                	j	1cc8 <__addsf3+0x28e>
    1d60:	d729                	beqz	a4,1caa <__addsf3+0x270>
    1d62:	842e                	mv	s0,a1
    1d64:	87ba                	mv	a5,a4
    1d66:	b5fd                	j	1c54 <__addsf3+0x21a>
    1d68:	40f707b3          	sub	a5,a4,a5
    1d6c:	842e                	mv	s0,a1
    1d6e:	4485                	li	s1,1
    1d70:	b379                	j	1afe <__addsf3+0xc4>
    1d72:	87ba                	mv	a5,a4
    1d74:	b5c5                	j	1c54 <__addsf3+0x21a>
    1d76:	97ba                	add	a5,a5,a4
    1d78:	040006b7          	lui	a3,0x4000
    1d7c:	8efd                	and	a3,a3,a5
    1d7e:	4601                	li	a2,0
    1d80:	dec1                	beqz	a3,1d18 <__addsf3+0x2de>
    1d82:	fc000737          	lui	a4,0xfc000
    1d86:	177d                	addi	a4,a4,-1 # fbffffff <_eusrstack+0xdbffe7ff>
    1d88:	8ff9                	and	a5,a5,a4
    1d8a:	4605                	li	a2,1
    1d8c:	838d                	srli	a5,a5,0x3
    1d8e:	b5e9                	j	1c58 <__addsf3+0x21e>
    1d90:	87aa                	mv	a5,a0
    1d92:	dd01                	beqz	a0,1caa <__addsf3+0x270>
    1d94:	838d                	srli	a5,a5,0x3
    1d96:	b5c9                	j	1c58 <__addsf3+0x21e>

00001d98 <__divsf3>:
    1d98:	fdc10113          	addi	sp,sp,-36
    1d9c:	01755793          	srli	a5,a0,0x17
    1da0:	cc26                	sw	s1,24(sp)
    1da2:	00951693          	slli	a3,a0,0x9
    1da6:	d006                	sw	ra,32(sp)
    1da8:	ce22                	sw	s0,28(sp)
    1daa:	0ff7f793          	zext.b	a5,a5
    1dae:	84ae                	mv	s1,a1
    1db0:	82a5                	srli	a3,a3,0x9
    1db2:	01f55713          	srli	a4,a0,0x1f
    1db6:	c3e1                	beqz	a5,1e76 <__divsf3+0xde>
    1db8:	0ff00613          	li	a2,255
    1dbc:	0cc78263          	beq	a5,a2,1e80 <__divsf3+0xe8>
    1dc0:	068e                	slli	a3,a3,0x3
    1dc2:	04000637          	lui	a2,0x4000
    1dc6:	8ed1                	or	a3,a3,a2
    1dc8:	f8178313          	addi	t1,a5,-127
    1dcc:	4401                	li	s0,0
    1dce:	4281                	li	t0,0
    1dd0:	0174d793          	srli	a5,s1,0x17
    1dd4:	00949593          	slli	a1,s1,0x9
    1dd8:	0ff7f793          	zext.b	a5,a5
    1ddc:	81a5                	srli	a1,a1,0x9
    1dde:	80fd                	srli	s1,s1,0x1f
    1de0:	cbb5                	beqz	a5,1e54 <__divsf3+0xbc>
    1de2:	0ff00613          	li	a2,255
    1de6:	0ac78363          	beq	a5,a2,1e8c <__divsf3+0xf4>
    1dea:	058e                	slli	a1,a1,0x3
    1dec:	04000637          	lui	a2,0x4000
    1df0:	8dd1                	or	a1,a1,a2
    1df2:	f8178793          	addi	a5,a5,-127
    1df6:	4501                	li	a0,0
    1df8:	43bd                	li	t2,15
    1dfa:	00974633          	xor	a2,a4,s1
    1dfe:	40f30333          	sub	t1,t1,a5
    1e02:	1a83ee63          	bltu	t2,s0,1fbe <__divsf3+0x226>
    1e06:	00002397          	auipc	t2,0x2
    1e0a:	a3a38393          	addi	t2,t2,-1478 # 3840 <asc2_2412+0xd84>
    1e0e:	040a                	slli	s0,s0,0x2
    1e10:	941e                	add	s0,s0,t2
    1e12:	401c                	lw	a5,0(s0)
    1e14:	979e                	add	a5,a5,t2
    1e16:	8782                	jr	a5
    1e18:	0ff00793          	li	a5,255
    1e1c:	4701                	li	a4,0
    1e1e:	5082                	lw	ra,32(sp)
    1e20:	4472                	lw	s0,28(sp)
    1e22:	01779513          	slli	a0,a5,0x17
    1e26:	8d59                	or	a0,a0,a4
    1e28:	067e                	slli	a2,a2,0x1f
    1e2a:	44e2                	lw	s1,24(sp)
    1e2c:	8d51                	or	a0,a0,a2
    1e2e:	02410113          	addi	sp,sp,36
    1e32:	8082                	ret
    1e34:	478d                	li	a5,3
    1e36:	00f28963          	beq	t0,a5,1e48 <__divsf3+0xb0>
    1e3a:	4785                	li	a5,1
    1e3c:	0ef29d63          	bne	t0,a5,1f36 <__divsf3+0x19e>
    1e40:	862a                	mv	a2,a0
    1e42:	4781                	li	a5,0
    1e44:	4701                	li	a4,0
    1e46:	bfe1                	j	1e1e <__divsf3+0x86>
    1e48:	4601                	li	a2,0
    1e4a:	0ff00793          	li	a5,255
    1e4e:	00400737          	lui	a4,0x400
    1e52:	b7f1                	j	1e1e <__divsf3+0x86>
    1e54:	e9d9                	bnez	a1,1eea <__divsf3+0x152>
    1e56:	00146413          	ori	s0,s0,1
    1e5a:	47b5                	li	a5,13
    1e5c:	00974633          	xor	a2,a4,s1
    1e60:	fa87ece3          	bltu	a5,s0,1e18 <__divsf3+0x80>
    1e64:	00002597          	auipc	a1,0x2
    1e68:	a1c58593          	addi	a1,a1,-1508 # 3880 <asc2_2412+0xdc4>
    1e6c:	040a                	slli	s0,s0,0x2
    1e6e:	942e                	add	s0,s0,a1
    1e70:	401c                	lw	a5,0(s0)
    1e72:	97ae                	add	a5,a5,a1
    1e74:	8782                	jr	a5
    1e76:	eaa1                	bnez	a3,1ec6 <__divsf3+0x12e>
    1e78:	4411                	li	s0,4
    1e7a:	4301                	li	t1,0
    1e7c:	4285                	li	t0,1
    1e7e:	bf89                	j	1dd0 <__divsf3+0x38>
    1e80:	ee95                	bnez	a3,1ebc <__divsf3+0x124>
    1e82:	4421                	li	s0,8
    1e84:	0ff00313          	li	t1,255
    1e88:	4289                	li	t0,2
    1e8a:	b799                	j	1dd0 <__divsf3+0x38>
    1e8c:	e195                	bnez	a1,1eb0 <__divsf3+0x118>
    1e8e:	00246413          	ori	s0,s0,2
    1e92:	1475                	addi	s0,s0,-3
    1e94:	45ad                	li	a1,11
    1e96:	00974633          	xor	a2,a4,s1
    1e9a:	fa85e4e3          	bltu	a1,s0,1e42 <__divsf3+0xaa>
    1e9e:	00002517          	auipc	a0,0x2
    1ea2:	a1a50513          	addi	a0,a0,-1510 # 38b8 <asc2_2412+0xdfc>
    1ea6:	040a                	slli	s0,s0,0x2
    1ea8:	942a                	add	s0,s0,a0
    1eaa:	400c                	lw	a1,0(s0)
    1eac:	95aa                	add	a1,a1,a0
    1eae:	8582                	jr	a1
    1eb0:	00346413          	ori	s0,s0,3
    1eb4:	0ff00793          	li	a5,255
    1eb8:	450d                	li	a0,3
    1eba:	bf3d                	j	1df8 <__divsf3+0x60>
    1ebc:	4431                	li	s0,12
    1ebe:	0ff00313          	li	t1,255
    1ec2:	428d                	li	t0,3
    1ec4:	b731                	j	1dd0 <__divsf3+0x38>
    1ec6:	8536                	mv	a0,a3
    1ec8:	c23a                	sw	a4,4(sp)
    1eca:	c036                	sw	a3,0(sp)
    1ecc:	387000ef          	jal	ra,2a52 <__clzsi2>
    1ed0:	4682                	lw	a3,0(sp)
    1ed2:	ffb50793          	addi	a5,a0,-5
    1ed6:	4712                	lw	a4,4(sp)
    1ed8:	00f696b3          	sll	a3,a3,a5
    1edc:	f8a00793          	li	a5,-118
    1ee0:	40a78333          	sub	t1,a5,a0
    1ee4:	4401                	li	s0,0
    1ee6:	4281                	li	t0,0
    1ee8:	b5e5                	j	1dd0 <__divsf3+0x38>
    1eea:	852e                	mv	a0,a1
    1eec:	c81a                	sw	t1,16(sp)
    1eee:	c636                	sw	a3,12(sp)
    1ef0:	c416                	sw	t0,8(sp)
    1ef2:	c23a                	sw	a4,4(sp)
    1ef4:	c02e                	sw	a1,0(sp)
    1ef6:	35d000ef          	jal	ra,2a52 <__clzsi2>
    1efa:	4582                	lw	a1,0(sp)
    1efc:	ffb50793          	addi	a5,a0,-5
    1f00:	4712                	lw	a4,4(sp)
    1f02:	00f595b3          	sll	a1,a1,a5
    1f06:	f8a00793          	li	a5,-118
    1f0a:	8f89                	sub	a5,a5,a0
    1f0c:	42a2                	lw	t0,8(sp)
    1f0e:	46b2                	lw	a3,12(sp)
    1f10:	4342                	lw	t1,16(sp)
    1f12:	4501                	li	a0,0
    1f14:	b5d5                	j	1df8 <__divsf3+0x60>
    1f16:	f0130313          	addi	t1,t1,-255
    1f1a:	4789                	li	a5,2
    1f1c:	853a                	mv	a0,a4
    1f1e:	f0f29be3          	bne	t0,a5,1e34 <__divsf3+0x9c>
    1f22:	862a                	mv	a2,a0
    1f24:	0ff00793          	li	a5,255
    1f28:	4701                	li	a4,0
    1f2a:	bdd5                	j	1e1e <__divsf3+0x86>
    1f2c:	478d                	li	a5,3
    1f2e:	f0f50de3          	beq	a0,a5,1e48 <__divsf3+0xb0>
    1f32:	8526                	mv	a0,s1
    1f34:	86ae                	mv	a3,a1
    1f36:	862a                	mv	a2,a0
    1f38:	07f30793          	addi	a5,t1,127
    1f3c:	02f05f63          	blez	a5,1f7a <__divsf3+0x1e2>
    1f40:	0076f713          	andi	a4,a3,7
    1f44:	c719                	beqz	a4,1f52 <__divsf3+0x1ba>
    1f46:	00f6f713          	andi	a4,a3,15
    1f4a:	4591                	li	a1,4
    1f4c:	00b70363          	beq	a4,a1,1f52 <__divsf3+0x1ba>
    1f50:	0691                	addi	a3,a3,4 # 4000004 <_data_lma+0x3ffc61c>
    1f52:	08000737          	lui	a4,0x8000
    1f56:	8f75                	and	a4,a4,a3
    1f58:	c719                	beqz	a4,1f66 <__divsf3+0x1ce>
    1f5a:	f80007b7          	lui	a5,0xf8000
    1f5e:	17fd                	addi	a5,a5,-1 # f7ffffff <_eusrstack+0xd7ffe7ff>
    1f60:	8efd                	and	a3,a3,a5
    1f62:	08030793          	addi	a5,t1,128
    1f66:	0fe00713          	li	a4,254
    1f6a:	eaf747e3          	blt	a4,a5,1e18 <__divsf3+0x80>
    1f6e:	00669713          	slli	a4,a3,0x6
    1f72:	8325                	srli	a4,a4,0x9
    1f74:	0ff7f793          	zext.b	a5,a5
    1f78:	b55d                	j	1e1e <__divsf3+0x86>
    1f7a:	4585                	li	a1,1
    1f7c:	c799                	beqz	a5,1f8a <__divsf3+0x1f2>
    1f7e:	8d9d                	sub	a1,a1,a5
    1f80:	456d                	li	a0,27
    1f82:	4781                	li	a5,0
    1f84:	4701                	li	a4,0
    1f86:	e8b54ce3          	blt	a0,a1,1e1e <__divsf3+0x86>
    1f8a:	09e30713          	addi	a4,t1,158
    1f8e:	00e69733          	sll	a4,a3,a4
    1f92:	00e03733          	snez	a4,a4
    1f96:	00b6d7b3          	srl	a5,a3,a1
    1f9a:	8fd9                	or	a5,a5,a4
    1f9c:	0077f713          	andi	a4,a5,7
    1fa0:	c719                	beqz	a4,1fae <__divsf3+0x216>
    1fa2:	00f7f713          	andi	a4,a5,15
    1fa6:	4691                	li	a3,4
    1fa8:	00d70363          	beq	a4,a3,1fae <__divsf3+0x216>
    1fac:	0791                	addi	a5,a5,4
    1fae:	04000737          	lui	a4,0x4000
    1fb2:	8f7d                	and	a4,a4,a5
    1fb4:	10070d63          	beqz	a4,20ce <__divsf3+0x336>
    1fb8:	4785                	li	a5,1
    1fba:	4701                	li	a4,0
    1fbc:	b58d                	j	1e1e <__divsf3+0x86>
    1fbe:	67c1                	lui	a5,0x10
    1fc0:	00559493          	slli	s1,a1,0x5
    1fc4:	17fd                	addi	a5,a5,-1 # ffff <_data_lma+0xc617>
    1fc6:	0104d713          	srli	a4,s1,0x10
    1fca:	8fe5                	and	a5,a5,s1
    1fcc:	c03a                	sw	a4,0(sp)
    1fce:	c23e                	sw	a5,4(sp)
    1fd0:	0ab6fe63          	bgeu	a3,a1,208c <__divsf3+0x2f4>
    1fd4:	8536                	mv	a0,a3
    1fd6:	85ba                	mv	a1,a4
    1fd8:	c832                	sw	a2,16(sp)
    1fda:	c61a                	sw	t1,12(sp)
    1fdc:	c436                	sw	a3,8(sp)
    1fde:	8e6fe0ef          	jal	ra,c4 <__hidden___udivsi3>
    1fe2:	4792                	lw	a5,4(sp)
    1fe4:	46a2                	lw	a3,8(sp)
    1fe6:	4332                	lw	t1,12(sp)
    1fe8:	4642                	lw	a2,16(sp)
    1fea:	02f502b3          	mul	t0,a0,a5
    1fee:	842a                	mv	s0,a0
    1ff0:	87b6                	mv	a5,a3
    1ff2:	137d                	addi	t1,t1,-1
    1ff4:	4681                	li	a3,0
    1ff6:	4582                	lw	a1,0(sp)
    1ff8:	853e                	mv	a0,a5
    1ffa:	ca32                	sw	a2,20(sp)
    1ffc:	c836                	sw	a3,16(sp)
    1ffe:	c616                	sw	t0,12(sp)
    2000:	c41a                	sw	t1,8(sp)
    2002:	8eefe0ef          	jal	ra,f0 <__umodsi3>
    2006:	46c2                	lw	a3,16(sp)
    2008:	42b2                	lw	t0,12(sp)
    200a:	01051793          	slli	a5,a0,0x10
    200e:	8fd5                	or	a5,a5,a3
    2010:	4322                	lw	t1,8(sp)
    2012:	4652                	lw	a2,20(sp)
    2014:	0057f863          	bgeu	a5,t0,2024 <__divsf3+0x28c>
    2018:	97a6                	add	a5,a5,s1
    201a:	fff40693          	addi	a3,s0,-1
    201e:	0a97f363          	bgeu	a5,s1,20c4 <__divsf3+0x32c>
    2022:	8436                	mv	s0,a3
    2024:	4582                	lw	a1,0(sp)
    2026:	405787b3          	sub	a5,a5,t0
    202a:	853e                	mv	a0,a5
    202c:	ca32                	sw	a2,20(sp)
    202e:	c81a                	sw	t1,16(sp)
    2030:	c63e                	sw	a5,12(sp)
    2032:	892fe0ef          	jal	ra,c4 <__hidden___udivsi3>
    2036:	4792                	lw	a5,4(sp)
    2038:	4582                	lw	a1,0(sp)
    203a:	c42a                	sw	a0,8(sp)
    203c:	02f503b3          	mul	t2,a0,a5
    2040:	47b2                	lw	a5,12(sp)
    2042:	853e                	mv	a0,a5
    2044:	c21e                	sw	t2,4(sp)
    2046:	8aafe0ef          	jal	ra,f0 <__umodsi3>
    204a:	4392                	lw	t2,4(sp)
    204c:	01051693          	slli	a3,a0,0x10
    2050:	42a2                	lw	t0,8(sp)
    2052:	4342                	lw	t1,16(sp)
    2054:	4652                	lw	a2,20(sp)
    2056:	0276f163          	bgeu	a3,t2,2078 <__divsf3+0x2e0>
    205a:	009687b3          	add	a5,a3,s1
    205e:	00d7b5b3          	sltu	a1,a5,a3
    2062:	fff28513          	addi	a0,t0,-1
    2066:	86be                	mv	a3,a5
    2068:	e599                	bnez	a1,2076 <__divsf3+0x2de>
    206a:	0077f663          	bgeu	a5,t2,2076 <__divsf3+0x2de>
    206e:	12f9                	addi	t0,t0,-2
    2070:	009786b3          	add	a3,a5,s1
    2074:	a011                	j	2078 <__divsf3+0x2e0>
    2076:	82aa                	mv	t0,a0
    2078:	01041713          	slli	a4,s0,0x10
    207c:	407686b3          	sub	a3,a3,t2
    2080:	00576733          	or	a4,a4,t0
    2084:	00d036b3          	snez	a3,a3
    2088:	8ed9                	or	a3,a3,a4
    208a:	b57d                	j	1f38 <__divsf3+0x1a0>
    208c:	4582                	lw	a1,0(sp)
    208e:	0016d793          	srli	a5,a3,0x1
    2092:	853e                	mv	a0,a5
    2094:	ca32                	sw	a2,20(sp)
    2096:	c81a                	sw	t1,16(sp)
    2098:	c636                	sw	a3,12(sp)
    209a:	c43e                	sw	a5,8(sp)
    209c:	828fe0ef          	jal	ra,c4 <__hidden___udivsi3>
    20a0:	46b2                	lw	a3,12(sp)
    20a2:	4792                	lw	a5,4(sp)
    20a4:	4652                	lw	a2,20(sp)
    20a6:	06fe                	slli	a3,a3,0x1f
    20a8:	02f502b3          	mul	t0,a0,a5
    20ac:	4342                	lw	t1,16(sp)
    20ae:	47a2                	lw	a5,8(sp)
    20b0:	842a                	mv	s0,a0
    20b2:	82c1                	srli	a3,a3,0x10
    20b4:	b789                	j	1ff6 <__divsf3+0x25e>
    20b6:	8526                	mv	a0,s1
    20b8:	862a                	mv	a2,a0
    20ba:	b361                	j	1e42 <__divsf3+0xaa>
    20bc:	4601                	li	a2,0
    20be:	00400737          	lui	a4,0x400
    20c2:	bbb1                	j	1e1e <__divsf3+0x86>
    20c4:	f457ffe3          	bgeu	a5,t0,2022 <__divsf3+0x28a>
    20c8:	1479                	addi	s0,s0,-2
    20ca:	97a6                	add	a5,a5,s1
    20cc:	bfa1                	j	2024 <__divsf3+0x28c>
    20ce:	079a                	slli	a5,a5,0x6
    20d0:	0097d713          	srli	a4,a5,0x9
    20d4:	4781                	li	a5,0
    20d6:	b3a1                	j	1e1e <__divsf3+0x86>
    20d8:	8526                	mv	a0,s1
    20da:	b5a1                	j	1f22 <__divsf3+0x18a>

000020dc <__gesf2>:
    20dc:	01755613          	srli	a2,a0,0x17
    20e0:	00800737          	lui	a4,0x800
    20e4:	177d                	addi	a4,a4,-1 # 7fffff <_data_lma+0x7fc617>
    20e6:	0175d693          	srli	a3,a1,0x17
    20ea:	0ff67613          	zext.b	a2,a2
    20ee:	0ff00313          	li	t1,255
    20f2:	00a772b3          	and	t0,a4,a0
    20f6:	01f55793          	srli	a5,a0,0x1f
    20fa:	8f6d                	and	a4,a4,a1
    20fc:	0ff6f513          	zext.b	a0,a3
    2100:	81fd                	srli	a1,a1,0x1f
    2102:	02660563          	beq	a2,t1,212c <__gesf2+0x50>
    2106:	00650a63          	beq	a0,t1,211a <__gesf2+0x3e>
    210a:	ea05                	bnez	a2,213a <__gesf2+0x5e>
    210c:	e909                	bnez	a0,211e <__gesf2+0x42>
    210e:	c339                	beqz	a4,2154 <__gesf2+0x78>
    2110:	04029e63          	bnez	t0,216c <__gesf2+0x90>
    2114:	c9a1                	beqz	a1,2164 <__gesf2+0x88>
    2116:	852e                	mv	a0,a1
    2118:	8082                	ret
    211a:	e739                	bnez	a4,2168 <__gesf2+0x8c>
    211c:	e219                	bnez	a2,2122 <__gesf2+0x46>
    211e:	fe028be3          	beqz	t0,2114 <__gesf2+0x38>
    2122:	00b79963          	bne	a5,a1,2134 <__gesf2+0x58>
    2126:	cf9d                	beqz	a5,2164 <__gesf2+0x88>
    2128:	853e                	mv	a0,a5
    212a:	8082                	ret
    212c:	02029e63          	bnez	t0,2168 <__gesf2+0x8c>
    2130:	02c50563          	beq	a0,a2,215a <__gesf2+0x7e>
    2134:	4505                	li	a0,1
    2136:	e79d                	bnez	a5,2164 <__gesf2+0x88>
    2138:	8082                	ret
    213a:	dd6d                	beqz	a0,2134 <__gesf2+0x58>
    213c:	feb79ce3          	bne	a5,a1,2134 <__gesf2+0x58>
    2140:	fec54ae3          	blt	a0,a2,2134 <__gesf2+0x58>
    2144:	fea641e3          	blt	a2,a0,2126 <__gesf2+0x4a>
    2148:	fe5766e3          	bltu	a4,t0,2134 <__gesf2+0x58>
    214c:	4501                	li	a0,0
    214e:	fce2ece3          	bltu	t0,a4,2126 <__gesf2+0x4a>
    2152:	8082                	ret
    2154:	fe0290e3          	bnez	t0,2134 <__gesf2+0x58>
    2158:	8082                	ret
    215a:	e719                	bnez	a4,2168 <__gesf2+0x8c>
    215c:	fcb79ce3          	bne	a5,a1,2134 <__gesf2+0x58>
    2160:	4501                	li	a0,0
    2162:	8082                	ret
    2164:	557d                	li	a0,-1
    2166:	8082                	ret
    2168:	5579                	li	a0,-2
    216a:	8082                	ret
    216c:	fcb78ee3          	beq	a5,a1,2148 <__gesf2+0x6c>
    2170:	b7d1                	j	2134 <__gesf2+0x58>

00002172 <__lesf2>:
    2172:	01755613          	srli	a2,a0,0x17
    2176:	00800737          	lui	a4,0x800
    217a:	177d                	addi	a4,a4,-1 # 7fffff <_data_lma+0x7fc617>
    217c:	0175d693          	srli	a3,a1,0x17
    2180:	0ff67613          	zext.b	a2,a2
    2184:	0ff00313          	li	t1,255
    2188:	00a772b3          	and	t0,a4,a0
    218c:	01f55793          	srli	a5,a0,0x1f
    2190:	8f6d                	and	a4,a4,a1
    2192:	0ff6f513          	zext.b	a0,a3
    2196:	81fd                	srli	a1,a1,0x1f
    2198:	02660663          	beq	a2,t1,21c4 <__lesf2+0x52>
    219c:	00650a63          	beq	a0,t1,21b0 <__lesf2+0x3e>
    21a0:	ee05                	bnez	a2,21d8 <__lesf2+0x66>
    21a2:	e911                	bnez	a0,21b6 <__lesf2+0x44>
    21a4:	cb29                	beqz	a4,21f6 <__lesf2+0x84>
    21a6:	04029f63          	bnez	t0,2204 <__lesf2+0x92>
    21aa:	c9b9                	beqz	a1,2200 <__lesf2+0x8e>
    21ac:	852e                	mv	a0,a1
    21ae:	8082                	ret
    21b0:	4509                	li	a0,2
    21b2:	eb01                	bnez	a4,21c2 <__lesf2+0x50>
    21b4:	e219                	bnez	a2,21ba <__lesf2+0x48>
    21b6:	fe028ae3          	beqz	t0,21aa <__lesf2+0x38>
    21ba:	02b78b63          	beq	a5,a1,21f0 <__lesf2+0x7e>
    21be:	4505                	li	a0,1
    21c0:	e3a1                	bnez	a5,2200 <__lesf2+0x8e>
    21c2:	8082                	ret
    21c4:	02029c63          	bnez	t0,21fc <__lesf2+0x8a>
    21c8:	fec51be3          	bne	a0,a2,21be <__lesf2+0x4c>
    21cc:	4509                	li	a0,2
    21ce:	fb75                	bnez	a4,21c2 <__lesf2+0x50>
    21d0:	feb797e3          	bne	a5,a1,21be <__lesf2+0x4c>
    21d4:	4501                	li	a0,0
    21d6:	8082                	ret
    21d8:	d17d                	beqz	a0,21be <__lesf2+0x4c>
    21da:	feb792e3          	bne	a5,a1,21be <__lesf2+0x4c>
    21de:	fec540e3          	blt	a0,a2,21be <__lesf2+0x4c>
    21e2:	00a64763          	blt	a2,a0,21f0 <__lesf2+0x7e>
    21e6:	fc576ce3          	bltu	a4,t0,21be <__lesf2+0x4c>
    21ea:	4501                	li	a0,0
    21ec:	fce2fbe3          	bgeu	t0,a4,21c2 <__lesf2+0x50>
    21f0:	cb81                	beqz	a5,2200 <__lesf2+0x8e>
    21f2:	853e                	mv	a0,a5
    21f4:	8082                	ret
    21f6:	fc0294e3          	bnez	t0,21be <__lesf2+0x4c>
    21fa:	8082                	ret
    21fc:	4509                	li	a0,2
    21fe:	8082                	ret
    2200:	557d                	li	a0,-1
    2202:	8082                	ret
    2204:	feb781e3          	beq	a5,a1,21e6 <__lesf2+0x74>
    2208:	bf5d                	j	21be <__lesf2+0x4c>

0000220a <__mulsf3>:
    220a:	1101                	addi	sp,sp,-32
    220c:	ca26                	sw	s1,20(sp)
    220e:	01755493          	srli	s1,a0,0x17
    2212:	00951613          	slli	a2,a0,0x9
    2216:	ce06                	sw	ra,28(sp)
    2218:	cc22                	sw	s0,24(sp)
    221a:	0ff4f493          	zext.b	s1,s1
    221e:	8225                	srli	a2,a2,0x9
    2220:	01f55693          	srli	a3,a0,0x1f
    2224:	10048763          	beqz	s1,2332 <__mulsf3+0x128>
    2228:	0ff00793          	li	a5,255
    222c:	10f48863          	beq	s1,a5,233c <__mulsf3+0x132>
    2230:	060e                	slli	a2,a2,0x3
    2232:	040007b7          	lui	a5,0x4000
    2236:	8e5d                	or	a2,a2,a5
    2238:	f8148493          	addi	s1,s1,-127
    223c:	4701                	li	a4,0
    223e:	4281                	li	t0,0
    2240:	0175d793          	srli	a5,a1,0x17
    2244:	00959413          	slli	s0,a1,0x9
    2248:	0ff7f793          	zext.b	a5,a5
    224c:	8025                	srli	s0,s0,0x9
    224e:	81fd                	srli	a1,a1,0x1f
    2250:	c7e9                	beqz	a5,231a <__mulsf3+0x110>
    2252:	0ff00513          	li	a0,255
    2256:	04a78f63          	beq	a5,a0,22b4 <__mulsf3+0xaa>
    225a:	f8178793          	addi	a5,a5,-127 # 3ffff81 <_data_lma+0x3ffc599>
    225e:	04000537          	lui	a0,0x4000
    2262:	040e                	slli	s0,s0,0x3
    2264:	8c49                	or	s0,s0,a0
    2266:	00978533          	add	a0,a5,s1
    226a:	00150493          	addi	s1,a0,1 # 4000001 <_data_lma+0x3ffc619>
    226e:	4329                	li	t1,10
    2270:	c026                	sw	s1,0(sp)
    2272:	4781                	li	a5,0
    2274:	0ee34c63          	blt	t1,a4,236c <__mulsf3+0x162>
    2278:	00b6c333          	xor	t1,a3,a1
    227c:	4689                	li	a3,2
    227e:	839a                	mv	t2,t1
    2280:	04e6c963          	blt	a3,a4,22d2 <__mulsf3+0xc8>
    2284:	177d                	addi	a4,a4,-1
    2286:	4585                	li	a1,1
    2288:	14e5e763          	bltu	a1,a4,23d6 <__mulsf3+0x1cc>
    228c:	0ad78e63          	beq	a5,a3,2348 <__mulsf3+0x13e>
    2290:	4705                	li	a4,1
    2292:	831e                	mv	t1,t2
    2294:	06e79163          	bne	a5,a4,22f6 <__mulsf3+0xec>
    2298:	4781                	li	a5,0
    229a:	4381                	li	t2,0
    229c:	40f2                	lw	ra,28(sp)
    229e:	4462                	lw	s0,24(sp)
    22a0:	01779513          	slli	a0,a5,0x17
    22a4:	00756533          	or	a0,a0,t2
    22a8:	037e                	slli	t1,t1,0x1f
    22aa:	44d2                	lw	s1,20(sp)
    22ac:	00656533          	or	a0,a0,t1
    22b0:	6105                	addi	sp,sp,32
    22b2:	8082                	ret
    22b4:	0ff48513          	addi	a0,s1,255
    22b8:	cc49                	beqz	s0,2352 <__mulsf3+0x148>
    22ba:	10048493          	addi	s1,s1,256
    22be:	00b6c333          	xor	t1,a3,a1
    22c2:	c026                	sw	s1,0(sp)
    22c4:	00376713          	ori	a4,a4,3
    22c8:	44a9                	li	s1,10
    22ca:	839a                	mv	t2,t1
    22cc:	20e4c463          	blt	s1,a4,24d4 <__mulsf3+0x2ca>
    22d0:	478d                	li	a5,3
    22d2:	4685                	li	a3,1
    22d4:	00e69733          	sll	a4,a3,a4
    22d8:	53077693          	andi	a3,a4,1328
    22dc:	ce99                	beqz	a3,22fa <__mulsf3+0xf0>
    22de:	4789                	li	a5,2
    22e0:	06f28463          	beq	t0,a5,2348 <__mulsf3+0x13e>
    22e4:	478d                	li	a5,3
    22e6:	02f28463          	beq	t0,a5,230e <__mulsf3+0x104>
    22ea:	8796                	mv	a5,t0
    22ec:	4705                	li	a4,1
    22ee:	8432                	mv	s0,a2
    22f0:	831e                	mv	t1,t2
    22f2:	fae783e3          	beq	a5,a4,2298 <__mulsf3+0x8e>
    22f6:	4502                	lw	a0,0(sp)
    22f8:	a291                	j	243c <__mulsf3+0x232>
    22fa:	24077693          	andi	a3,a4,576
    22fe:	ea81                	bnez	a3,230e <__mulsf3+0x104>
    2300:	08877713          	andi	a4,a4,136
    2304:	cb69                	beqz	a4,23d6 <__mulsf3+0x1cc>
    2306:	83ae                	mv	t2,a1
    2308:	8622                	mv	a2,s0
    230a:	82be                	mv	t0,a5
    230c:	bfc9                	j	22de <__mulsf3+0xd4>
    230e:	4301                	li	t1,0
    2310:	0ff00793          	li	a5,255
    2314:	004003b7          	lui	t2,0x400
    2318:	b751                	j	229c <__mulsf3+0x92>
    231a:	e051                	bnez	s0,239e <__mulsf3+0x194>
    231c:	8526                	mv	a0,s1
    231e:	00150493          	addi	s1,a0,1
    2322:	00176713          	ori	a4,a4,1
    2326:	4329                	li	t1,10
    2328:	c026                	sw	s1,0(sp)
    232a:	4785                	li	a5,1
    232c:	f4e356e3          	bge	t1,a4,2278 <__mulsf3+0x6e>
    2330:	a835                	j	236c <__mulsf3+0x162>
    2332:	e621                	bnez	a2,237a <__mulsf3+0x170>
    2334:	4711                	li	a4,4
    2336:	4481                	li	s1,0
    2338:	4285                	li	t0,1
    233a:	b719                	j	2240 <__mulsf3+0x36>
    233c:	ea15                	bnez	a2,2370 <__mulsf3+0x166>
    233e:	4721                	li	a4,8
    2340:	0ff00493          	li	s1,255
    2344:	4289                	li	t0,2
    2346:	bded                	j	2240 <__mulsf3+0x36>
    2348:	831e                	mv	t1,t2
    234a:	0ff00793          	li	a5,255
    234e:	4381                	li	t2,0
    2350:	b7b1                	j	229c <__mulsf3+0x92>
    2352:	10048793          	addi	a5,s1,256
    2356:	c03e                	sw	a5,0(sp)
    2358:	00276713          	ori	a4,a4,2
    235c:	4329                	li	t1,10
    235e:	43b9                	li	t2,14
    2360:	4789                	li	a5,2
    2362:	f0e35be3          	bge	t1,a4,2278 <__mulsf3+0x6e>
    2366:	472d                	li	a4,11
    2368:	f8e38fe3          	beq	t2,a4,2306 <__mulsf3+0xfc>
    236c:	83b6                	mv	t2,a3
    236e:	bf85                	j	22de <__mulsf3+0xd4>
    2370:	4731                	li	a4,12
    2372:	0ff00493          	li	s1,255
    2376:	428d                	li	t0,3
    2378:	b5e1                	j	2240 <__mulsf3+0x36>
    237a:	8532                	mv	a0,a2
    237c:	c42e                	sw	a1,8(sp)
    237e:	c236                	sw	a3,4(sp)
    2380:	c032                	sw	a2,0(sp)
    2382:	2dc1                	jal	2a52 <__clzsi2>
    2384:	4602                	lw	a2,0(sp)
    2386:	ffb50793          	addi	a5,a0,-5
    238a:	f8a00493          	li	s1,-118
    238e:	4692                	lw	a3,4(sp)
    2390:	45a2                	lw	a1,8(sp)
    2392:	00f61633          	sll	a2,a2,a5
    2396:	8c89                	sub	s1,s1,a0
    2398:	4701                	li	a4,0
    239a:	4281                	li	t0,0
    239c:	b555                	j	2240 <__mulsf3+0x36>
    239e:	8522                	mv	a0,s0
    23a0:	c832                	sw	a2,16(sp)
    23a2:	c616                	sw	t0,12(sp)
    23a4:	c43a                	sw	a4,8(sp)
    23a6:	c22e                	sw	a1,4(sp)
    23a8:	c036                	sw	a3,0(sp)
    23aa:	2565                	jal	2a52 <__clzsi2>
    23ac:	ffb50793          	addi	a5,a0,-5
    23b0:	40a48533          	sub	a0,s1,a0
    23b4:	f8a50513          	addi	a0,a0,-118
    23b8:	4722                	lw	a4,8(sp)
    23ba:	00150493          	addi	s1,a0,1
    23be:	4682                	lw	a3,0(sp)
    23c0:	4329                	li	t1,10
    23c2:	c026                	sw	s1,0(sp)
    23c4:	00f41433          	sll	s0,s0,a5
    23c8:	4592                	lw	a1,4(sp)
    23ca:	42b2                	lw	t0,12(sp)
    23cc:	4642                	lw	a2,16(sp)
    23ce:	4781                	li	a5,0
    23d0:	eae354e3          	bge	t1,a4,2278 <__mulsf3+0x6e>
    23d4:	bf61                	j	236c <__mulsf3+0x162>
    23d6:	63c1                	lui	t2,0x10
    23d8:	fff38713          	addi	a4,t2,-1 # ffff <_data_lma+0xc617>
    23dc:	01065693          	srli	a3,a2,0x10
    23e0:	01045293          	srli	t0,s0,0x10
    23e4:	8e79                	and	a2,a2,a4
    23e6:	8f61                	and	a4,a4,s0
    23e8:	02c705b3          	mul	a1,a4,a2
    23ec:	02e68733          	mul	a4,a3,a4
    23f0:	0105d793          	srli	a5,a1,0x10
    23f4:	02c28633          	mul	a2,t0,a2
    23f8:	963a                	add	a2,a2,a4
    23fa:	97b2                	add	a5,a5,a2
    23fc:	025686b3          	mul	a3,a3,t0
    2400:	00e7f363          	bgeu	a5,a4,2406 <__mulsf3+0x1fc>
    2404:	969e                	add	a3,a3,t2
    2406:	6641                	lui	a2,0x10
    2408:	167d                	addi	a2,a2,-1 # ffff <_data_lma+0xc617>
    240a:	00c7f733          	and	a4,a5,a2
    240e:	8df1                	and	a1,a1,a2
    2410:	0742                	slli	a4,a4,0x10
    2412:	972e                	add	a4,a4,a1
    2414:	00671613          	slli	a2,a4,0x6
    2418:	0107d413          	srli	s0,a5,0x10
    241c:	8369                	srli	a4,a4,0x1a
    241e:	00c037b3          	snez	a5,a2
    2422:	9436                	add	s0,s0,a3
    2424:	8fd9                	or	a5,a5,a4
    2426:	041a                	slli	s0,s0,0x6
    2428:	8c5d                	or	s0,s0,a5
    242a:	080007b7          	lui	a5,0x8000
    242e:	8fe1                	and	a5,a5,s0
    2430:	c791                	beqz	a5,243c <__mulsf3+0x232>
    2432:	4502                	lw	a0,0(sp)
    2434:	00145793          	srli	a5,s0,0x1
    2438:	8805                	andi	s0,s0,1
    243a:	8c5d                	or	s0,s0,a5
    243c:	07f50793          	addi	a5,a0,127
    2440:	04f05063          	blez	a5,2480 <__mulsf3+0x276>
    2444:	00747713          	andi	a4,s0,7
    2448:	c719                	beqz	a4,2456 <__mulsf3+0x24c>
    244a:	00f47713          	andi	a4,s0,15
    244e:	4691                	li	a3,4
    2450:	00d70363          	beq	a4,a3,2456 <__mulsf3+0x24c>
    2454:	0411                	addi	s0,s0,4
    2456:	08000737          	lui	a4,0x8000
    245a:	8f61                	and	a4,a4,s0
    245c:	c719                	beqz	a4,246a <__mulsf3+0x260>
    245e:	f80007b7          	lui	a5,0xf8000
    2462:	17fd                	addi	a5,a5,-1 # f7ffffff <_eusrstack+0xd7ffe7ff>
    2464:	8c7d                	and	s0,s0,a5
    2466:	08050793          	addi	a5,a0,128
    246a:	0fe00713          	li	a4,254
    246e:	04f74a63          	blt	a4,a5,24c2 <__mulsf3+0x2b8>
    2472:	00641393          	slli	t2,s0,0x6
    2476:	0093d393          	srli	t2,t2,0x9
    247a:	0ff7f793          	zext.b	a5,a5
    247e:	bd39                	j	229c <__mulsf3+0x92>
    2480:	4705                	li	a4,1
    2482:	c799                	beqz	a5,2490 <__mulsf3+0x286>
    2484:	8f1d                	sub	a4,a4,a5
    2486:	46ed                	li	a3,27
    2488:	4781                	li	a5,0
    248a:	4381                	li	t2,0
    248c:	e0e6c8e3          	blt	a3,a4,229c <__mulsf3+0x92>
    2490:	09e50513          	addi	a0,a0,158
    2494:	00a41533          	sll	a0,s0,a0
    2498:	00e457b3          	srl	a5,s0,a4
    249c:	00a03733          	snez	a4,a0
    24a0:	8fd9                	or	a5,a5,a4
    24a2:	0077f713          	andi	a4,a5,7
    24a6:	c719                	beqz	a4,24b4 <__mulsf3+0x2aa>
    24a8:	00f7f713          	andi	a4,a5,15
    24ac:	4691                	li	a3,4
    24ae:	00d70363          	beq	a4,a3,24b4 <__mulsf3+0x2aa>
    24b2:	0791                	addi	a5,a5,4
    24b4:	04000737          	lui	a4,0x4000
    24b8:	8f7d                	and	a4,a4,a5
    24ba:	cb01                	beqz	a4,24ca <__mulsf3+0x2c0>
    24bc:	4785                	li	a5,1
    24be:	4381                	li	t2,0
    24c0:	bbf1                	j	229c <__mulsf3+0x92>
    24c2:	0ff00793          	li	a5,255
    24c6:	4381                	li	t2,0
    24c8:	bbd1                	j	229c <__mulsf3+0x92>
    24ca:	079a                	slli	a5,a5,0x6
    24cc:	0097d393          	srli	t2,a5,0x9
    24d0:	4781                	li	a5,0
    24d2:	b3e9                	j	229c <__mulsf3+0x92>
    24d4:	453d                	li	a0,15
    24d6:	4301                	li	t1,0
    24d8:	004003b7          	lui	t2,0x400
    24dc:	dca700e3          	beq	a4,a0,229c <__mulsf3+0x92>
    24e0:	43ad                	li	t2,11
    24e2:	478d                	li	a5,3
    24e4:	b549                	j	2366 <__mulsf3+0x15c>

000024e6 <__subsf3>:
    24e6:	00800737          	lui	a4,0x800
    24ea:	1141                	addi	sp,sp,-16
    24ec:	0175d693          	srli	a3,a1,0x17
    24f0:	177d                	addi	a4,a4,-1 # 7fffff <_data_lma+0x7fc617>
    24f2:	00a777b3          	and	a5,a4,a0
    24f6:	c422                	sw	s0,8(sp)
    24f8:	8f6d                	and	a4,a4,a1
    24fa:	01f55413          	srli	s0,a0,0x1f
    24fe:	c226                	sw	s1,4(sp)
    2500:	c606                	sw	ra,12(sp)
    2502:	01755493          	srli	s1,a0,0x17
    2506:	0ff00313          	li	t1,255
    250a:	0ff6f513          	zext.b	a0,a3
    250e:	0ff4f493          	zext.b	s1,s1
    2512:	86a2                	mv	a3,s0
    2514:	078e                	slli	a5,a5,0x3
    2516:	81fd                	srli	a1,a1,0x1f
    2518:	00371613          	slli	a2,a4,0x3
    251c:	04650363          	beq	a0,t1,2562 <__subsf3+0x7c>
    2520:	0015c593          	xori	a1,a1,1
    2524:	40a48733          	sub	a4,s1,a0
    2528:	00b40f63          	beq	s0,a1,2546 <__subsf3+0x60>
    252c:	30e05663          	blez	a4,2838 <__subsf3+0x352>
    2530:	e135                	bnez	a0,2594 <__subsf3+0xae>
    2532:	14060c63          	beqz	a2,268a <__subsf3+0x1a4>
    2536:	fff70693          	addi	a3,a4,-1
    253a:	28068e63          	beqz	a3,27d6 <__subsf3+0x2f0>
    253e:	02670f63          	beq	a4,t1,257c <__subsf3+0x96>
    2542:	8736                	mv	a4,a3
    2544:	a8a9                	j	259e <__subsf3+0xb8>
    2546:	30e05563          	blez	a4,2850 <__subsf3+0x36a>
    254a:	c96d                	beqz	a0,263c <__subsf3+0x156>
    254c:	02648863          	beq	s1,t1,257c <__subsf3+0x96>
    2550:	040005b7          	lui	a1,0x4000
    2554:	8e4d                	or	a2,a2,a1
    2556:	45ed                	li	a1,27
    2558:	12e5df63          	bge	a1,a4,2696 <__subsf3+0x1b0>
    255c:	0785                	addi	a5,a5,1
    255e:	8726                	mv	a4,s1
    2560:	a88d                	j	25d2 <__subsf3+0xec>
    2562:	f0148713          	addi	a4,s1,-255
    2566:	e645                	bnez	a2,260e <__subsf3+0x128>
    2568:	0015c593          	xori	a1,a1,1
    256c:	0eb40163          	beq	s0,a1,264e <__subsf3+0x168>
    2570:	18070a63          	beqz	a4,2704 <__subsf3+0x21e>
    2574:	10048663          	beqz	s1,2680 <__subsf3+0x19a>
    2578:	842e                	mv	s0,a1
    257a:	87b2                	mv	a5,a2
    257c:	838d                	srli	a5,a5,0x3
    257e:	00147693          	andi	a3,s0,1
    2582:	0ff00513          	li	a0,255
    2586:	cbbd                	beqz	a5,25fc <__subsf3+0x116>
    2588:	4681                	li	a3,0
    258a:	0ff00513          	li	a0,255
    258e:	004007b7          	lui	a5,0x400
    2592:	a0ad                	j	25fc <__subsf3+0x116>
    2594:	fe6484e3          	beq	s1,t1,257c <__subsf3+0x96>
    2598:	040006b7          	lui	a3,0x4000
    259c:	8e55                	or	a2,a2,a3
    259e:	45ed                	li	a1,27
    25a0:	4685                	li	a3,1
    25a2:	00e5cd63          	blt	a1,a4,25bc <__subsf3+0xd6>
    25a6:	02000693          	li	a3,32
    25aa:	8e99                	sub	a3,a3,a4
    25ac:	00d616b3          	sll	a3,a2,a3
    25b0:	00e65633          	srl	a2,a2,a4
    25b4:	00d03733          	snez	a4,a3
    25b8:	00e666b3          	or	a3,a2,a4
    25bc:	8f95                	sub	a5,a5,a3
    25be:	04000737          	lui	a4,0x4000
    25c2:	00e7f6b3          	and	a3,a5,a4
    25c6:	10069163          	bnez	a3,26c8 <__subsf3+0x1e2>
    25ca:	0077f693          	andi	a3,a5,7
    25ce:	8726                	mv	a4,s1
    25d0:	cecd                	beqz	a3,268a <__subsf3+0x1a4>
    25d2:	00f7f693          	andi	a3,a5,15
    25d6:	4611                	li	a2,4
    25d8:	00c68363          	beq	a3,a2,25de <__subsf3+0xf8>
    25dc:	0791                	addi	a5,a5,4 # 400004 <_data_lma+0x3fc61c>
    25de:	040006b7          	lui	a3,0x4000
    25e2:	8efd                	and	a3,a3,a5
    25e4:	c2dd                	beqz	a3,268a <__subsf3+0x1a4>
    25e6:	0705                	addi	a4,a4,1 # 4000001 <_data_lma+0x3ffc619>
    25e8:	0ff00613          	li	a2,255
    25ec:	00147693          	andi	a3,s0,1
    25f0:	0cc70863          	beq	a4,a2,26c0 <__subsf3+0x1da>
    25f4:	079a                	slli	a5,a5,0x6
    25f6:	0ff77513          	zext.b	a0,a4
    25fa:	83a5                	srli	a5,a5,0x9
    25fc:	40b2                	lw	ra,12(sp)
    25fe:	4422                	lw	s0,8(sp)
    2600:	055e                	slli	a0,a0,0x17
    2602:	8d5d                	or	a0,a0,a5
    2604:	06fe                	slli	a3,a3,0x1f
    2606:	4492                	lw	s1,4(sp)
    2608:	8d55                	or	a0,a0,a3
    260a:	0141                	addi	sp,sp,16
    260c:	8082                	ret
    260e:	f6b411e3          	bne	s0,a1,2570 <__subsf3+0x8a>
    2612:	c331                	beqz	a4,2656 <__subsf3+0x170>
    2614:	1a049f63          	bnez	s1,27d2 <__subsf3+0x2ec>
    2618:	0ff00713          	li	a4,255
    261c:	c7b5                	beqz	a5,2688 <__subsf3+0x1a2>
    261e:	fff70593          	addi	a1,a4,-1
    2622:	12058763          	beqz	a1,2750 <__subsf3+0x26a>
    2626:	0ff00313          	li	t1,255
    262a:	1a670463          	beq	a4,t1,27d2 <__subsf3+0x2ec>
    262e:	476d                	li	a4,27
    2630:	1ab75963          	bge	a4,a1,27e2 <__subsf3+0x2fc>
    2634:	00160793          	addi	a5,a2,1
    2638:	872a                	mv	a4,a0
    263a:	bf61                	j	25d2 <__subsf3+0xec>
    263c:	c639                	beqz	a2,268a <__subsf3+0x1a4>
    263e:	fff70593          	addi	a1,a4,-1
    2642:	10058763          	beqz	a1,2750 <__subsf3+0x26a>
    2646:	f2670be3          	beq	a4,t1,257c <__subsf3+0x96>
    264a:	872e                	mv	a4,a1
    264c:	b729                	j	2556 <__subsf3+0x70>
    264e:	c701                	beqz	a4,2656 <__subsf3+0x170>
    2650:	d4e1                	beqz	s1,2618 <__subsf3+0x132>
    2652:	4781                	li	a5,0
    2654:	b725                	j	257c <__subsf3+0x96>
    2656:	00148713          	addi	a4,s1,1
    265a:	0fe77593          	andi	a1,a4,254
    265e:	14059463          	bnez	a1,27a6 <__subsf3+0x2c0>
    2662:	16049763          	bnez	s1,27d0 <__subsf3+0x2ea>
    2666:	1a078563          	beqz	a5,2810 <__subsf3+0x32a>
    266a:	1a061563          	bnez	a2,2814 <__subsf3+0x32e>
    266e:	838d                	srli	a5,a5,0x3
    2670:	4701                	li	a4,0
    2672:	07a6                	slli	a5,a5,0x9
    2674:	83a5                	srli	a5,a5,0x9
    2676:	0ff77513          	zext.b	a0,a4
    267a:	00147693          	andi	a3,s0,1
    267e:	bfbd                	j	25fc <__subsf3+0x116>
    2680:	0ff00713          	li	a4,255
    2684:	e7fd                	bnez	a5,2772 <__subsf3+0x28c>
    2686:	842e                	mv	s0,a1
    2688:	87b2                	mv	a5,a2
    268a:	0ff00693          	li	a3,255
    268e:	838d                	srli	a5,a5,0x3
    2690:	eed707e3          	beq	a4,a3,257e <__subsf3+0x98>
    2694:	bff9                	j	2672 <__subsf3+0x18c>
    2696:	02000593          	li	a1,32
    269a:	8d99                	sub	a1,a1,a4
    269c:	00b615b3          	sll	a1,a2,a1
    26a0:	00b035b3          	snez	a1,a1
    26a4:	00e65633          	srl	a2,a2,a4
    26a8:	8e4d                	or	a2,a2,a1
    26aa:	97b2                	add	a5,a5,a2
    26ac:	04000737          	lui	a4,0x4000
    26b0:	8f7d                	and	a4,a4,a5
    26b2:	df01                	beqz	a4,25ca <__subsf3+0xe4>
    26b4:	00148713          	addi	a4,s1,1
    26b8:	0ff00613          	li	a2,255
    26bc:	0ac71263          	bne	a4,a2,2760 <__subsf3+0x27a>
    26c0:	0ff00513          	li	a0,255
    26c4:	4781                	li	a5,0
    26c6:	bf1d                	j	25fc <__subsf3+0x116>
    26c8:	177d                	addi	a4,a4,-1 # 3ffffff <_data_lma+0x3ffc617>
    26ca:	8f7d                	and	a4,a4,a5
    26cc:	853a                	mv	a0,a4
    26ce:	c03a                	sw	a4,0(sp)
    26d0:	2649                	jal	2a52 <__clzsi2>
    26d2:	4702                	lw	a4,0(sp)
    26d4:	156d                	addi	a0,a0,-5
    26d6:	00a716b3          	sll	a3,a4,a0
    26da:	04954963          	blt	a0,s1,272c <__subsf3+0x246>
    26de:	8d05                	sub	a0,a0,s1
    26e0:	00150793          	addi	a5,a0,1
    26e4:	02000713          	li	a4,32
    26e8:	8f1d                	sub	a4,a4,a5
    26ea:	00e69733          	sll	a4,a3,a4
    26ee:	00e03733          	snez	a4,a4
    26f2:	00f6d7b3          	srl	a5,a3,a5
    26f6:	8fd9                	or	a5,a5,a4
    26f8:	4701                	li	a4,0
    26fa:	0077f693          	andi	a3,a5,7
    26fe:	ec069ae3          	bnez	a3,25d2 <__subsf3+0xec>
    2702:	bdf1                	j	25de <__subsf3+0xf8>
    2704:	00148713          	addi	a4,s1,1
    2708:	0fe77713          	andi	a4,a4,254
    270c:	e71d                	bnez	a4,273a <__subsf3+0x254>
    270e:	e8cd                	bnez	s1,27c0 <__subsf3+0x2da>
    2710:	cfe5                	beqz	a5,2808 <__subsf3+0x322>
    2712:	de31                	beqz	a2,266e <__subsf3+0x188>
    2714:	40c78733          	sub	a4,a5,a2
    2718:	040006b7          	lui	a3,0x4000
    271c:	8ef9                	and	a3,a3,a4
    271e:	10068863          	beqz	a3,282e <__subsf3+0x348>
    2722:	40f607b3          	sub	a5,a2,a5
    2726:	4701                	li	a4,0
    2728:	842e                	mv	s0,a1
    272a:	bfc1                	j	26fa <__subsf3+0x214>
    272c:	fc0007b7          	lui	a5,0xfc000
    2730:	17fd                	addi	a5,a5,-1 # fbffffff <_eusrstack+0xdbffe7ff>
    2732:	40a48733          	sub	a4,s1,a0
    2736:	8ff5                	and	a5,a5,a3
    2738:	b7c9                	j	26fa <__subsf3+0x214>
    273a:	40c78733          	sub	a4,a5,a2
    273e:	040006b7          	lui	a3,0x4000
    2742:	8ef9                	and	a3,a3,a4
    2744:	e2d1                	bnez	a3,27c8 <__subsf3+0x2e2>
    2746:	f359                	bnez	a4,26cc <__subsf3+0x1e6>
    2748:	4681                	li	a3,0
    274a:	4501                	li	a0,0
    274c:	4781                	li	a5,0
    274e:	b57d                	j	25fc <__subsf3+0x116>
    2750:	97b2                	add	a5,a5,a2
    2752:	040006b7          	lui	a3,0x4000
    2756:	8efd                	and	a3,a3,a5
    2758:	4709                	li	a4,2
    275a:	4485                	li	s1,1
    275c:	e60687e3          	beqz	a3,25ca <__subsf3+0xe4>
    2760:	7e000637          	lui	a2,0x7e000
    2764:	0017d693          	srli	a3,a5,0x1
    2768:	167d                	addi	a2,a2,-1 # 7dffffff <_eusrstack+0x5dffe7ff>
    276a:	8b85                	andi	a5,a5,1
    276c:	8ef1                	and	a3,a3,a2
    276e:	8fd5                	or	a5,a5,a3
    2770:	b769                	j	26fa <__subsf3+0x214>
    2772:	fff70693          	addi	a3,a4,-1
    2776:	c6c1                	beqz	a3,27fe <__subsf3+0x318>
    2778:	0ff00313          	li	t1,255
    277c:	842e                	mv	s0,a1
    277e:	04670a63          	beq	a4,t1,27d2 <__subsf3+0x2ec>
    2782:	45ed                	li	a1,27
    2784:	4705                	li	a4,1
    2786:	00d5cc63          	blt	a1,a3,279e <__subsf3+0x2b8>
    278a:	02000713          	li	a4,32
    278e:	8f15                	sub	a4,a4,a3
    2790:	00e79733          	sll	a4,a5,a4
    2794:	00d7d6b3          	srl	a3,a5,a3
    2798:	00e03733          	snez	a4,a4
    279c:	8f55                	or	a4,a4,a3
    279e:	40e607b3          	sub	a5,a2,a4
    27a2:	84aa                	mv	s1,a0
    27a4:	bd29                	j	25be <__subsf3+0xd8>
    27a6:	0ff00593          	li	a1,255
    27aa:	f0b70be3          	beq	a4,a1,26c0 <__subsf3+0x1da>
    27ae:	963e                	add	a2,a2,a5
    27b0:	00165793          	srli	a5,a2,0x1
    27b4:	0077f693          	andi	a3,a5,7
    27b8:	e0069de3          	bnez	a3,25d2 <__subsf3+0xec>
    27bc:	838d                	srli	a5,a5,0x3
    27be:	bd55                	j	2672 <__subsf3+0x18c>
    27c0:	ef91                	bnez	a5,27dc <__subsf3+0x2f6>
    27c2:	dc0603e3          	beqz	a2,2588 <__subsf3+0xa2>
    27c6:	bb4d                	j	2578 <__subsf3+0x92>
    27c8:	40f60733          	sub	a4,a2,a5
    27cc:	842e                	mv	s0,a1
    27ce:	bdfd                	j	26cc <__subsf3+0x1e6>
    27d0:	e791                	bnez	a5,27dc <__subsf3+0x2f6>
    27d2:	87b2                	mv	a5,a2
    27d4:	b365                	j	257c <__subsf3+0x96>
    27d6:	8f91                	sub	a5,a5,a2
    27d8:	4485                	li	s1,1
    27da:	b3d5                	j	25be <__subsf3+0xd8>
    27dc:	da0600e3          	beqz	a2,257c <__subsf3+0x96>
    27e0:	b365                	j	2588 <__subsf3+0xa2>
    27e2:	02000713          	li	a4,32
    27e6:	8f0d                	sub	a4,a4,a1
    27e8:	00e79733          	sll	a4,a5,a4
    27ec:	00b7d5b3          	srl	a1,a5,a1
    27f0:	00e037b3          	snez	a5,a4
    27f4:	8ddd                	or	a1,a1,a5
    27f6:	00c587b3          	add	a5,a1,a2
    27fa:	84aa                	mv	s1,a0
    27fc:	bd45                	j	26ac <__subsf3+0x1c6>
    27fe:	40f607b3          	sub	a5,a2,a5
    2802:	842e                	mv	s0,a1
    2804:	4485                	li	s1,1
    2806:	bb65                	j	25be <__subsf3+0xd8>
    2808:	d221                	beqz	a2,2748 <__subsf3+0x262>
    280a:	842e                	mv	s0,a1
    280c:	87b2                	mv	a5,a2
    280e:	b585                	j	266e <__subsf3+0x188>
    2810:	87b2                	mv	a5,a2
    2812:	bdb1                	j	266e <__subsf3+0x188>
    2814:	97b2                	add	a5,a5,a2
    2816:	040006b7          	lui	a3,0x4000
    281a:	8efd                	and	a3,a3,a5
    281c:	4701                	li	a4,0
    281e:	ded9                	beqz	a3,27bc <__subsf3+0x2d6>
    2820:	fc000737          	lui	a4,0xfc000
    2824:	177d                	addi	a4,a4,-1 # fbffffff <_eusrstack+0xdbffe7ff>
    2826:	8ff9                	and	a5,a5,a4
    2828:	838d                	srli	a5,a5,0x3
    282a:	4705                	li	a4,1
    282c:	b599                	j	2672 <__subsf3+0x18c>
    282e:	df09                	beqz	a4,2748 <__subsf3+0x262>
    2830:	87ba                	mv	a5,a4
    2832:	838d                	srli	a5,a5,0x3
    2834:	4701                	li	a4,0
    2836:	bd35                	j	2672 <__subsf3+0x18c>
    2838:	ec0706e3          	beqz	a4,2704 <__subsf3+0x21e>
    283c:	409506b3          	sub	a3,a0,s1
    2840:	8736                	mv	a4,a3
    2842:	e40481e3          	beqz	s1,2684 <__subsf3+0x19e>
    2846:	04000737          	lui	a4,0x4000
    284a:	8fd9                	or	a5,a5,a4
    284c:	842e                	mv	s0,a1
    284e:	bf15                	j	2782 <__subsf3+0x29c>
    2850:	e00703e3          	beqz	a4,2656 <__subsf3+0x170>
    2854:	409505b3          	sub	a1,a0,s1
    2858:	e099                	bnez	s1,285e <__subsf3+0x378>
    285a:	872e                	mv	a4,a1
    285c:	b3c1                	j	261c <__subsf3+0x136>
    285e:	04000737          	lui	a4,0x4000
    2862:	8fd9                	or	a5,a5,a4
    2864:	b3e9                	j	262e <__subsf3+0x148>

00002866 <__fixunssfsi>:
    2866:	01755713          	srli	a4,a0,0x17
    286a:	00800637          	lui	a2,0x800
    286e:	fff60793          	addi	a5,a2,-1 # 7fffff <_data_lma+0x7fc617>
    2872:	0ff77713          	zext.b	a4,a4
    2876:	07e00593          	li	a1,126
    287a:	00a7f6b3          	and	a3,a5,a0
    287e:	01f55793          	srli	a5,a0,0x1f
    2882:	4501                	li	a0,0
    2884:	00e5d363          	bge	a1,a4,288a <__fixunssfsi+0x24>
    2888:	c391                	beqz	a5,288c <__fixunssfsi+0x26>
    288a:	8082                	ret
    288c:	09e00793          	li	a5,158
    2890:	557d                	li	a0,-1
    2892:	fee7cce3          	blt	a5,a4,288a <__fixunssfsi+0x24>
    2896:	09500593          	li	a1,149
    289a:	00c6e7b3          	or	a5,a3,a2
    289e:	00e5d763          	bge	a1,a4,28ac <__fixunssfsi+0x46>
    28a2:	f6a70513          	addi	a0,a4,-150 # 3ffff6a <_data_lma+0x3ffc582>
    28a6:	00a79533          	sll	a0,a5,a0
    28aa:	8082                	ret
    28ac:	09600513          	li	a0,150
    28b0:	8d19                	sub	a0,a0,a4
    28b2:	00a7d533          	srl	a0,a5,a0
    28b6:	8082                	ret

000028b8 <__floatsisf>:
    28b8:	1151                	addi	sp,sp,-12
    28ba:	c406                	sw	ra,8(sp)
    28bc:	c222                	sw	s0,4(sp)
    28be:	c026                	sw	s1,0(sp)
    28c0:	c121                	beqz	a0,2900 <__floatsisf+0x48>
    28c2:	41f55713          	srai	a4,a0,0x1f
    28c6:	00a744b3          	xor	s1,a4,a0
    28ca:	8c99                	sub	s1,s1,a4
    28cc:	87aa                	mv	a5,a0
    28ce:	8526                	mv	a0,s1
    28d0:	01f7d413          	srli	s0,a5,0x1f
    28d4:	2abd                	jal	2a52 <__clzsi2>
    28d6:	86aa                	mv	a3,a0
    28d8:	09e00513          	li	a0,158
    28dc:	40d507b3          	sub	a5,a0,a3
    28e0:	09600713          	li	a4,150
    28e4:	02f74b63          	blt	a4,a5,291a <__floatsisf+0x62>
    28e8:	4721                	li	a4,8
    28ea:	08e68b63          	beq	a3,a4,2980 <__floatsisf+0xc8>
    28ee:	ff868513          	addi	a0,a3,-8 # 3fffff8 <_data_lma+0x3ffc610>
    28f2:	00a49733          	sll	a4,s1,a0
    28f6:	0726                	slli	a4,a4,0x9
    28f8:	8325                	srli	a4,a4,0x9
    28fa:	0ff7f513          	zext.b	a0,a5
    28fe:	a021                	j	2906 <__floatsisf+0x4e>
    2900:	4401                	li	s0,0
    2902:	4501                	li	a0,0
    2904:	4701                	li	a4,0
    2906:	40a2                	lw	ra,8(sp)
    2908:	01f41793          	slli	a5,s0,0x1f
    290c:	4412                	lw	s0,4(sp)
    290e:	055e                	slli	a0,a0,0x17
    2910:	8d59                	or	a0,a0,a4
    2912:	4482                	lw	s1,0(sp)
    2914:	8d5d                	or	a0,a0,a5
    2916:	0131                	addi	sp,sp,12
    2918:	8082                	ret
    291a:	09900713          	li	a4,153
    291e:	04f74463          	blt	a4,a5,2966 <__floatsisf+0xae>
    2922:	4715                	li	a4,5
    2924:	ffb68613          	addi	a2,a3,-5
    2928:	00e68463          	beq	a3,a4,2930 <__floatsisf+0x78>
    292c:	00c494b3          	sll	s1,s1,a2
    2930:	fc000637          	lui	a2,0xfc000
    2934:	167d                	addi	a2,a2,-1 # fbffffff <_eusrstack+0xdbffe7ff>
    2936:	0074f593          	andi	a1,s1,7
    293a:	00c4f733          	and	a4,s1,a2
    293e:	cd99                	beqz	a1,295c <__floatsisf+0xa4>
    2940:	88bd                	andi	s1,s1,15
    2942:	4591                	li	a1,4
    2944:	00b48c63          	beq	s1,a1,295c <__floatsisf+0xa4>
    2948:	0711                	addi	a4,a4,4
    294a:	040005b7          	lui	a1,0x4000
    294e:	8df9                	and	a1,a1,a4
    2950:	c591                	beqz	a1,295c <__floatsisf+0xa4>
    2952:	09f00513          	li	a0,159
    2956:	8f71                	and	a4,a4,a2
    2958:	40d507b3          	sub	a5,a0,a3
    295c:	071a                	slli	a4,a4,0x6
    295e:	8325                	srli	a4,a4,0x9
    2960:	0ff7f513          	zext.b	a0,a5
    2964:	b74d                	j	2906 <__floatsisf+0x4e>
    2966:	01b68713          	addi	a4,a3,27
    296a:	4615                	li	a2,5
    296c:	00e49733          	sll	a4,s1,a4
    2970:	8e15                	sub	a2,a2,a3
    2972:	00c4d633          	srl	a2,s1,a2
    2976:	00e03733          	snez	a4,a4
    297a:	00e664b3          	or	s1,a2,a4
    297e:	bf4d                	j	2930 <__floatsisf+0x78>
    2980:	00949713          	slli	a4,s1,0x9
    2984:	8325                	srli	a4,a4,0x9
    2986:	09600513          	li	a0,150
    298a:	bfb5                	j	2906 <__floatsisf+0x4e>

0000298c <__floatunsisf>:
    298c:	c121                	beqz	a0,29cc <__floatunsisf+0x40>
    298e:	1151                	addi	sp,sp,-12
    2990:	c222                	sw	s0,4(sp)
    2992:	c406                	sw	ra,8(sp)
    2994:	842a                	mv	s0,a0
    2996:	2875                	jal	2a52 <__clzsi2>
    2998:	86aa                	mv	a3,a0
    299a:	09e00513          	li	a0,158
    299e:	40d507b3          	sub	a5,a0,a3
    29a2:	09600713          	li	a4,150
    29a6:	02f74863          	blt	a4,a5,29d6 <__floatunsisf+0x4a>
    29aa:	4721                	li	a4,8
    29ac:	08e68d63          	beq	a3,a4,2a46 <__floatunsisf+0xba>
    29b0:	ff868513          	addi	a0,a3,-8
    29b4:	00a41733          	sll	a4,s0,a0
    29b8:	0726                	slli	a4,a4,0x9
    29ba:	8325                	srli	a4,a4,0x9
    29bc:	0ff7f513          	zext.b	a0,a5
    29c0:	40a2                	lw	ra,8(sp)
    29c2:	4412                	lw	s0,4(sp)
    29c4:	055e                	slli	a0,a0,0x17
    29c6:	8d59                	or	a0,a0,a4
    29c8:	0131                	addi	sp,sp,12
    29ca:	8082                	ret
    29cc:	4501                	li	a0,0
    29ce:	4701                	li	a4,0
    29d0:	055e                	slli	a0,a0,0x17
    29d2:	8d59                	or	a0,a0,a4
    29d4:	8082                	ret
    29d6:	09900713          	li	a4,153
    29da:	04f74963          	blt	a4,a5,2a2c <__floatunsisf+0xa0>
    29de:	4715                	li	a4,5
    29e0:	ffb68613          	addi	a2,a3,-5
    29e4:	00e68463          	beq	a3,a4,29ec <__floatunsisf+0x60>
    29e8:	00c41433          	sll	s0,s0,a2
    29ec:	fc000637          	lui	a2,0xfc000
    29f0:	167d                	addi	a2,a2,-1 # fbffffff <_eusrstack+0xdbffe7ff>
    29f2:	00747593          	andi	a1,s0,7
    29f6:	00c47733          	and	a4,s0,a2
    29fa:	cd99                	beqz	a1,2a18 <__floatunsisf+0x8c>
    29fc:	883d                	andi	s0,s0,15
    29fe:	4591                	li	a1,4
    2a00:	00b40c63          	beq	s0,a1,2a18 <__floatunsisf+0x8c>
    2a04:	0711                	addi	a4,a4,4
    2a06:	040005b7          	lui	a1,0x4000
    2a0a:	8df9                	and	a1,a1,a4
    2a0c:	c591                	beqz	a1,2a18 <__floatunsisf+0x8c>
    2a0e:	09f00513          	li	a0,159
    2a12:	8f71                	and	a4,a4,a2
    2a14:	40d507b3          	sub	a5,a0,a3
    2a18:	40a2                	lw	ra,8(sp)
    2a1a:	4412                	lw	s0,4(sp)
    2a1c:	071a                	slli	a4,a4,0x6
    2a1e:	0ff7f513          	zext.b	a0,a5
    2a22:	8325                	srli	a4,a4,0x9
    2a24:	055e                	slli	a0,a0,0x17
    2a26:	8d59                	or	a0,a0,a4
    2a28:	0131                	addi	sp,sp,12
    2a2a:	8082                	ret
    2a2c:	01b68613          	addi	a2,a3,27
    2a30:	4715                	li	a4,5
    2a32:	00c41633          	sll	a2,s0,a2
    2a36:	8f15                	sub	a4,a4,a3
    2a38:	00c03633          	snez	a2,a2
    2a3c:	00e45733          	srl	a4,s0,a4
    2a40:	00e66433          	or	s0,a2,a4
    2a44:	b765                	j	29ec <__floatunsisf+0x60>
    2a46:	00941713          	slli	a4,s0,0x9
    2a4a:	8325                	srli	a4,a4,0x9
    2a4c:	09600513          	li	a0,150
    2a50:	bf85                	j	29c0 <__floatunsisf+0x34>

00002a52 <__clzsi2>:
    2a52:	67c1                	lui	a5,0x10
    2a54:	02f57563          	bgeu	a0,a5,2a7e <__clzsi2+0x2c>
    2a58:	10053793          	sltiu	a5,a0,256
    2a5c:	0017c793          	xori	a5,a5,1
    2a60:	078e                	slli	a5,a5,0x3
    2a62:	02000713          	li	a4,32
    2a66:	8f1d                	sub	a4,a4,a5
    2a68:	00f55533          	srl	a0,a0,a5
    2a6c:	00001797          	auipc	a5,0x1
    2a70:	e7c78793          	addi	a5,a5,-388 # 38e8 <__clz_tab>
    2a74:	97aa                	add	a5,a5,a0
    2a76:	2388                	lbu	a0,0(a5)
    2a78:	40a70533          	sub	a0,a4,a0
    2a7c:	8082                	ret
    2a7e:	010007b7          	lui	a5,0x1000
    2a82:	00f57f63          	bgeu	a0,a5,2aa0 <__clzsi2+0x4e>
    2a86:	47c1                	li	a5,16
    2a88:	00f55533          	srl	a0,a0,a5
    2a8c:	00001797          	auipc	a5,0x1
    2a90:	e5c78793          	addi	a5,a5,-420 # 38e8 <__clz_tab>
    2a94:	97aa                	add	a5,a5,a0
    2a96:	2388                	lbu	a0,0(a5)
    2a98:	4741                	li	a4,16
    2a9a:	40a70533          	sub	a0,a4,a0
    2a9e:	8082                	ret
    2aa0:	47e1                	li	a5,24
    2aa2:	00f55533          	srl	a0,a0,a5
    2aa6:	00001797          	auipc	a5,0x1
    2aaa:	e4278793          	addi	a5,a5,-446 # 38e8 <__clz_tab>
    2aae:	97aa                	add	a5,a5,a0
    2ab0:	2388                	lbu	a0,0(a5)
    2ab2:	4721                	li	a4,8
    2ab4:	40a70533          	sub	a0,a4,a0
    2ab8:	8082                	ret
	...

00002abc <asc2_2412>:
	...
    2ae4:	f000 f0f0 0000 0000 0000 0000 0100 017f     ................
	...
    2afc:	1c00 1c1c 0000 0000 0000 6080 1c30 608c     ...........`0..`
    2b0c:	1c30 000c 0000 0000 0000 0000 0000 0000     0...............
	...
    2b28:	0000 e000 0000 0000 e000 0000 8600 9fe6     ................
    2b38:	8686 8686 9fe6 0086 0100 011f 0101 0101     ................
    2b48:	011f 0001 0000 c080 2060 20f8 c0e0 0000     ........` . ....
    2b58:	0000 0703 180c 70ff 81e1 0000 0000 0f07     .......p........
    2b68:	1010 107f 070f 0000 6080 6020 0080 0000     .........` `....
    2b78:	20e0 0000 300f 3020 709f 37dc 3010 00c0     . ...0 0.p.7.0..
    2b88:	0000 0e10 0003 1807 1810 0007 0000 20c0     ............... 
    2b98:	e020 00c0 0000 0000 e080 381f 87e8 c403      ..........8....
    2ba8:	043c 0000 0f07 1018 0b10 0d07 1010 0008     <...............
    2bb8:	8000 4c8c 0038 0000 0000 0000 0000 0000     ...L8...........
	...
    2be0:	0000 e080 0830 0004 0000 0000 fe00 01ff     ....0...........
	...
    2bf8:	0000 0f03 2018 0040 0400 3008 80e0 0000     ..... @....0....
	...
    2c10:	ff01 00fe 0000 0000 4000 1820 030f 0000     .........@ .....
	...
    2c28:	0000 00c0 0000 0000 4200 6666 183c 18ff     .........Bff<...
    2c38:	663c 4266 0000 0000 0000 0003 0000 0000     <ffB............
    2c48:	0000 0000 0000 0080 0000 0000 1000 1010     ................
    2c58:	1010 10ff 1010 1010 0000 0000 0000 0003     ................
	...
    2c84:	8000 4c8c 0038 0000 0000 0000 0000 0000     ...L8...........
	...
    2c9c:	1000 1010 1010 1010 1010 0010 0000 0000     ................
	...
    2ccc:	0000 1c1c 001c 0000 0000 0000 0000 0000     ................
    2cdc:	0000 0000 38e0 000c 0000 0000 7080 031c     .....8.......p..
    2cec:	0000 0000 6000 0e38 0001 0000 0000 0000     .....`8.........
    2cfc:	0000 c080 2060 6020 80c0 0000 fe00 01ff     ....`  `........
    2d0c:	0000 0000 ff01 00fe 0100 0e07 1018 1810     ................
    2d1c:	070e 0001 0000 8080 c080 00e0 0000 0000     ................
    2d2c:	0000 0000 ff00 00ff 0000 0000 0000 1010     ................
    2d3c:	1f10 101f 1010 0000 8000 2040 2020 6020     ..........@    `
    2d4c:	80c0 0000 0300 0003 4080 3820 071f 0000     .........@ 8....
    2d5c:	1c00 191a 1818 1818 1f18 0000 8000 20c0     ............... 
    2d6c:	2020 c060 0080 0000 0300 0003 1010 2f18       `............/
    2d7c:	80e7 0000 0700 100f 1010 1810 070f 0000     ................
    2d8c:	0000 0000 0000 e0c0 00f0 0000 c000 88b0     ................
    2d9c:	8186 ff80 80ff 0080 0000 0000 1000 1f10     ................
    2dac:	101f 0010 0000 60e0 6060 6060 6060 0000     .......```````..
    2dbc:	0000 103f 0808 1808 e0f0 0000 0700 100b     ..?.............
    2dcc:	1010 1c10 030f 0000 0000 c080 2040 2020     ............@   
    2ddc:	c0e0 0000 fc00 21ff 0810 0808 f018 00e0     .......!........
    2dec:	0100 0c07 1018 1010 0f08 0003 0000 e0c0     ................
    2dfc:	6060 6060 e060 0060 0000 0003 0000 18e0     `````.`.........
    2e0c:	0007 0000 0000 0000 1f00 001f 0000 0000     ................
    2e1c:	8000 60c0 2020 2020 c060 0080 8700 2cef     ...`    `......,
    2e2c:	1818 3030 cf68 0083 0700 080f 1010 1010     ..00h...........
    2e3c:	0f18 0007 0000 c0c0 2020 2020 80c0 0000     ........    ....
    2e4c:	1f00 603f 4040 2040 ff10 00fe 0000 1c0c     ..?`@@@ ........
    2e5c:	1010 0810 030f 0000 0000 0000 0000 0000     ................
	...
    2e74:	0e00 0e0e 0000 0000 0000 0000 1c00 1c1c     ................
	...
    2e98:	0c00 000c 0000 0000 0000 0000 5800 0038     .............X8.
	...
    2eb0:	0000 8000 2040 0010 0000 2810 8244 0001     ....@ .....(D...
	...
    2ec8:	0000 0201 0804 0010 0000 0000 0000 0000     ................
    2ed8:	0000 0000 8400 8484 8484 8484 8484 0084     ................
	...
    2ef4:	0000 2010 8040 0000 0000 0000 0000 0000     ... @...........
    2f04:	0000 8201 2844 0010 0000 0810 0204 0001     ....D(..........
    2f14:	0000 0000 c000 2020 1010 1010 e030 00c0     ......  ....0...
    2f24:	0300 0003 f000 0810 070c 0003 0000 0000     ................
    2f34:	1c1c 001c 0000 0000 0000 c000 6040 2020     ............@`  
    2f44:	4020 00c0 fc00 01ff 0ef0 c103 03fe 7f80      @..............
    2f54:	0100 0e07 1108 1011 0911 0204 0000 0000     ................
    2f64:	e080 00e0 0000 0000 0000 7c80 4043 7f47     ...........|C@G.
    2f74:	80f8 0000 1810 101f 0000 0000 1f13 101c     ................
    2f84:	e020 20e0 2020 6020 80c0 0000 ff00 10ff      ..    `........
    2f94:	1010 1810 e72f 0080 1f10 101f 1010 1010     ..../...........
    2fa4:	0f18 0007 0000 c080 2040 2020 6020 00e0     ........@    `..
    2fb4:	fc00 01ff 0000 0000 0000 0001 0100 0e07     ................
    2fc4:	1018 1010 0408 0003 e020 20e0 2020 4020     ........ ..    @
    2fd4:	80c0 0000 ff00 00ff 0000 0000 ff01 00fe     ................
    2fe4:	1f10 101f 1010 0818 070e 0001 e020 20e0     ............ .. 
    2ff4:	2020 2020 6020 0080 ff00 10ff 1010 7c10          `.........|
    3004:	0000 0000 1f10 101f 1010 1010 1810 0006     ................
    3014:	e020 20e0 2020 2020 6060 0080 ff00 10ff      ..     ``......
    3024:	1010 7c10 0000 0001 1f10 101f 0000 0000     ...|............
    3034:	0000 0000 0000 c080 2060 2020 e040 0000     ........`   @...
    3044:	fc00 01ff 0000 4040 c1c0 4040 0100 0e07     ......@@..@@....
    3054:	1018 1010 0f0f 0000 e020 20e0 0000 0000     ........ .. ....
    3064:	e020 20e0 ff00 10ff 1010 1010 ff10 00ff      .. ............
    3074:	1f10 101f 0000 0000 1f10 101f 0000 2020     ..............  
    3084:	e020 20e0 2020 0000 0000 0000 ff00 00ff      ..   ..........
    3094:	0000 0000 0000 1010 1f10 101f 1010 0000     ................
    30a4:	0000 0000 2020 e020 20e0 2020 0000 0000     ....   ..   ....
    30b4:	0000 ff00 00ff 0000 6000 80e0 8080 7fc0     .........`......
    30c4:	003f 0000 e020 20e0 0000 a020 2060 0020     ?... .. .. .`  .
    30d4:	ff00 30ff 7c18 c0e3 0000 0000 1f10 101f     ...0.|..........
    30e4:	0000 1301 1c1f 1018 e020 20e0 0000 0000     ........ .. ....
    30f4:	0000 0000 ff00 00ff 0000 0000 0000 0000     ................
    3104:	1f10 101f 1010 1010 1810 0006 e020 e0e0     ............ ...
    3114:	0000 0000 e0e0 20e0 ff00 3f01 c0fe 1ee0     ....... ...?....
    3124:	ff01 00ff 1f10 0010 1f03 0003 1f10 101f     ................
    3134:	e020 c0e0 0000 0000 2000 20e0 ff00 0300      ........ . ....
    3144:	1c07 e078 0080 00ff 1f10 0010 0000 0000     ..x.............
    3154:	0f03 001f 0000 c080 2060 6020 80c0 0000     ........`  `....
    3164:	fe00 01ff 0000 0000 ff00 00fe 0100 0e07     ................
    3174:	1018 1810 070c 0001 e020 20e0 2020 2020     ........ ..     
    3184:	c060 0080 ff00 20ff 2020 2020 1f30 000f     `......     0...
    3194:	1f10 101f 0000 0000 0000 0000 0000 c080     ................
    31a4:	2060 6020 80c0 0000 fe00 01ff 0000 0000     `  `............
    31b4:	ff00 00fe 0100 0e07 1111 3c13 677c 0021     ...........<|g!.
    31c4:	e020 20e0 2020 2020 c060 0080 ff00 10ff      ..     `.......
    31d4:	3010 d0f0 0f08 0007 1f10 101f 0000 0300     .0..............
    31e4:	1c0f 1010 8000 60c0 2020 2020 4040 00e0     .......`    @@..
    31f4:	0700 0c0f 1818 3030 e060 0081 1f00 080c     ......00`.......
    3204:	1010 1010 0f18 0007 6080 2020 e020 20e0     .........`   .. 
    3214:	2020 8060 0001 0000 ff00 00ff 0000 0100       `.............
    3224:	0000 0000 1f10 101f 0000 0000 e020 20e0     ............ .. 
    3234:	0000 0000 2000 20e0 ff00 00ff 0000 0000     ..... . ........
    3244:	0000 00ff 0700 180f 1010 1010 0810 0007     ................
    3254:	6020 e0e0 0020 0000 e020 2060 0000 7f07      `.. ... .` ....
    3264:	80f8 8000 037c 0000 0000 0000 1f07 071c     ....|...........
    3274:	0000 0000 e020 20e0 e000 20e0 2000 20e0     .... .. ... . . 
    3284:	0700 f8ff 1fe0 fcff 1fe0 0000 0000 1f03     ................
    3294:	0003 1f01 0003 0000 2000 e060 00a0 2000     ......... `.... 
    32a4:	60e0 0020 0000 0300 7c8f c6f8 0001 0000     .` ......|......
    32b4:	1000 1e18 0013 1701 181f 0010 6020 e0e0     ............ `..
    32c4:	0020 0000 e020 2060 0000 0701 f83e 18e0      ... .` ....>...
    32d4:	0007 0000 0000 1000 1f10 101f 0010 0000     ................
    32e4:	8000 2060 2020 a020 e0e0 0020 0000 0000     ..`    ... .....
    32f4:	f0c0 0f3e 0003 0000 1000 1f1c 1017 1010     ..>.............
    3304:	1810 0006 0000 0000 fc00 0404 0404 0004     ................
    3314:	0000 0000 ff00 0000 0000 0000 0000 0000     ................
    3324:	7f00 4040 4040 0040 0000 e010 0000 0000     ..@@@@@.........
	...
    333c:	1c03 8060 0000 0000 0000 0000 0000 0300     ..`.............
    334c:	700c 0080 0000 0404 0404 fc04 0000 0000     .p..............
    335c:	0000 0000 0000 ff00 0000 0000 0000 4040     ..............@@
    336c:	4040 7f40 0000 0000 0000 1000 0c08 0c04     @@@.............
    337c:	1008 0000 0000 0000 0000 0000 0000 0000     ................
	...
    33b0:	8080 8080 8080 8080 8080 8080 0000 0400     ................
    33c0:	0804 0008 0000 0000 0000 0000 0000 0000     ................
	...
    33ec:	0000 d898 6444 2424 f8fc 0000 0f00 181f     ....Dd$$........
    33fc:	1010 0810 1f1f 1810 2000 f0e0 0000 0000     ......... ......
    340c:	0000 0000 0000 ffff 0818 0404 f80c 00f0     ................
    341c:	0000 0f1f 1018 1010 0f18 0003 0000 0000     ................
	...
    3434:	e000 18f8 0404 3c04 0038 0000 0300 0c0f     .......<8.......
    3444:	1010 1010 0608 0000 0000 0000 0000 2000     ............... 
    3454:	f0e0 0000 e000 1cf8 0404 0804 ffff 0000     ................
    3464:	0300 180f 1010 0810 0f1f 0008 0000 0000     ................
	...
    347c:	0000 f8e0 4448 4444 784c 0070 0000 0f03     ....HDDDLxp.....
    348c:	180c 1010 0810 0004 0000 0000 c080 2060     ..............` 
    349c:	e020 00c0 0400 0404 ffff 0404 0404 0000      ...............
    34ac:	0000 1010 1f1f 1010 0010 0000 0000 0000     ................
	...
    34c4:	0000 f870 048c 8c04 74f8 0c04 7000 cf76     ..p......t...pv.
    34d4:	8d8d 898d 78c8 0070 2000 f0e0 0000 0000     .....xp.. ......
    34e4:	0000 0000 0000 ffff 0408 0404 f8fc 0000     ................
    34f4:	1000 1f1f 0010 1000 1f1f 0010 0000 0000     ................
    3504:	6000 0060 0000 0000 0000 0404 fc04 00fc     .``.............
    3514:	0000 0000 0000 1010 1f10 101f 1010 0000     ................
    3524:	0000 0000 0000 6000 0060 0000 0000 0000     .......``.......
    3534:	0404 fc04 00fc 0000 0000 c0c0 8080 7fc0     ................
    3544:	003f 0000 2000 f0e0 0000 0000 0000 0000     ?.... ..........
    3554:	0000 ffff c080 1cf4 0404 0000 1000 1f1f     ................
    3564:	0011 1f03 101c 0010 0000 2020 e020 00f0     ..........   ...
	...
    357c:	ff00 00ff 0000 0000 0000 1010 1f10 101f     ................
    358c:	1010 0000 0000 0000 0000 0000 0000 0000     ................
    359c:	fc04 08fc fc04 08fc fc04 00fc 1f10 101f     ................
    35ac:	1f00 101f 1f00 101f 0000 0000 0000 0000     ................
    35bc:	0000 0000 0400 fcfc 0808 0404 f8fc 0000     ................
    35cc:	1000 1f1f 0010 1000 1f1f 0010 0000 0000     ................
	...
    35e4:	e000 18f0 040c 0c04 f018 00e0 0300 0c0f     ................
    35f4:	1010 1010 0f0c 0003 0000 0000 0000 0000     ................
    3604:	0000 0000 0400 fcfc 0408 0404 f80c 00f0     ................
    3614:	8000 ffff 9088 1010 0f1c 0003 0000 0000     ................
	...
    362c:	e000 1cf8 0404 0804 fcf8 0000 0300 180f     ................
    363c:	1010 8890 ffff 0080 0000 0000 0000 0000     ................
    364c:	0000 0000 0404 fc04 10fc 0408 0c04 000c     ................
    365c:	1010 1f10 101f 1010 0000 0000 0000 0000     ................
	...
    3674:	0000 7830 c4cc 8484 0c84 001c 0000 181e     ..0x............
    3684:	1010 1110 0f19 0006 0000 0000 c000 0000     ................
    3694:	0000 0000 0400 0404 ffff 0404 0004 0000     ................
    36a4:	0000 0000 1f0f 1010 0c10 0000 0000 0000     ................
	...
    36bc:	0400 fefc 0000 0400 fefc 0000 0000 1f0f     ................
    36cc:	1018 0810 0f1f 0008 0000 0000 0000 0000     ................
    36dc:	0000 0000 0400 3c0c c4fc 0000 3cc4 040c     .......<.....<..
    36ec:	0000 0000 0f01 0e1e 0001 0000 0000 0000     ................
	...
    3704:	3c04 c4fc e400 fc7c 8084 047c 0000 1f07     .<....|...|.....
    3714:	0007 0700 071f 0000 0000 0000 0000 0000     ................
    3724:	0000 0000 0400 1c04 e47c 34c0 041c 0004     ........|..4....
    3734:	1000 1c10 0116 1f13 181c 0010 0000 0000     ................
	...
    374c:	0400 3c0c c4fc c400 043c 0004 0000 80c0     ...<....<.......
    375c:	37c1 010e 0000 0000 0000 0000 0000 0000     .7..............
    376c:	0000 0000 0000 041c c404 7cf4 041c 0000     ...........|....
    377c:	0000 1c10 171f 1011 1810 000e 0000 0000     ................
    378c:	0000 f800 040c 0000 0000 0000 1000 ef28     ..............(.
	...
    37a4:	0000 3f00 4060 0000 0000 0000 0000 00ff     ...?`@..........
	...
    37bc:	0000 00ff 0000 0000 0000 0000 0000 00ff     ................
    37cc:	0000 0000 0000 0c04 00f8 0000 0000 0000     ................
    37dc:	0000 0000 28ef 0010 0000 0000 0000 6040     .....(........@`
    37ec:	003f 0000 0000 0000 1800 0206 0402 1008     ?...............
    37fc:	2020 0830 0000 0000 0000 0000 0000 0000       0.............
	...
    3818:	0000 4120 0000 42c8 4e20 2041 0000 0000     .. A...B NA ....
    3828:	0000 7f80 0000 bf80 cccd 3dcc 0000 41f0     ...........=...A
    3838:	0000 4200 0000 4228 e77e ffff e5d8 ffff     ...B..(B~.......
    3848:	e602 ffff e6ec ffff e602 ffff e608 ffff     ................
    3858:	e602 ffff e6ec ffff e5d8 ffff e5d8 ffff     ................
    3868:	e608 ffff e6ec ffff e6da ffff e6da ffff     ................
    3878:	e6da ffff e608 ffff e598 ffff e598 ffff     ................
    3888:	e5c2 ffff e836 ffff e5c2 ffff e5c8 ffff     ....6...........
    3898:	e5c2 ffff e836 ffff e598 ffff e598 ffff     ....6...........
    38a8:	e5c8 ffff e836 ffff e69a ffff e69a ffff     ....6...........
    38b8:	e820 ffff e58a ffff e804 ffff e58a ffff      ...............
    38c8:	e820 ffff e560 ffff e560 ffff e804 ffff      ...`...`.......
    38d8:	e820 ffff e65e ffff e65e ffff e65e ffff      ...^...^...^...

000038e8 <__clz_tab>:
    38e8:	0100 0202 0303 0303 0404 0404 0404 0404     ................
    38f8:	0505 0505 0505 0505 0505 0505 0505 0505     ................
    3908:	0606 0606 0606 0606 0606 0606 0606 0606     ................
    3918:	0606 0606 0606 0606 0606 0606 0606 0606     ................
    3928:	0707 0707 0707 0707 0707 0707 0707 0707     ................
    3938:	0707 0707 0707 0707 0707 0707 0707 0707     ................
    3948:	0707 0707 0707 0707 0707 0707 0707 0707     ................
    3958:	0707 0707 0707 0707 0707 0707 0707 0707     ................
    3968:	0808 0808 0808 0808 0808 0808 0808 0808     ................
    3978:	0808 0808 0808 0808 0808 0808 0808 0808     ................
    3988:	0808 0808 0808 0808 0808 0808 0808 0808     ................
    3998:	0808 0808 0808 0808 0808 0808 0808 0808     ................
    39a8:	0808 0808 0808 0808 0808 0808 0808 0808     ................
    39b8:	0808 0808 0808 0808 0808 0808 0808 0808     ................
    39c8:	0808 0808 0808 0808 0808 0808 0808 0808     ................
    39d8:	0808 0808 0808 0808 0808 0808 0808 0808     ................
